---
triple:          'arm64-apple-darwin'
binary-path:     '/Users/arcademo/Code/LeetCode/build/InvertBinaryTree'
relocations:
  - { offsetInCU: 0x66, offset: 0x66, size: 0x8, addend: 0x0, symName: __ZNSt3__16ranges5__cpo9iter_moveE, symObjAddr: 0x5C37, symBinAddr: 0x100007C3F, symSize: 0x0 }
  - { offsetInCU: 0x5164, offset: 0x5164, size: 0x8, addend: 0x0, symName: __ZNSt3__124__put_character_sequenceB8ue170006IcNS_11char_traitsIcEEEERNS_13basic_ostreamIT_T0_EES7_PKS4_m, symObjAddr: 0x1D84, symBinAddr: 0x100003BE8, symSize: 0x1EC }
  - { offsetInCU: 0x75EE, offset: 0x75EE, size: 0x8, addend: 0x0, symName: __ZNSt3__1lsB8ue170006INS_11char_traitsIcEEEERNS_13basic_ostreamIcT_EES6_PKc, symObjAddr: 0x188, symBinAddr: 0x100001FEC, symSize: 0x48 }
  - { offsetInCU: 0x7634, offset: 0x7634, size: 0x8, addend: 0x0, symName: __ZNSt3__14endlB8ue170006IcNS_11char_traitsIcEEEERNS_13basic_ostreamIT_T0_EES7_, symObjAddr: 0x1FC, symBinAddr: 0x100002060, symSize: 0x58 }
  - { offsetInCU: 0x787F, offset: 0x787F, size: 0x8, addend: 0x0, symName: __ZNSt3__1neB8ue170006ERKNS_16__deque_iteratorIP8TreeNodePS2_RS2_PS3_lLl512EEES8_, symObjAddr: 0xD48, symBinAddr: 0x100002BAC, symSize: 0x34 }
  - { offsetInCU: 0x78BC, offset: 0x78BC, size: 0x8, addend: 0x0, symName: __ZNSt3__1eqB8ue170006ERKNS_16__deque_iteratorIP8TreeNodePS2_RS2_PS3_lLl512EEES8_, symObjAddr: 0x109C, symBinAddr: 0x100002F00, symSize: 0x30 }
  - { offsetInCU: 0x78F9, offset: 0x78F9, size: 0x8, addend: 0x0, symName: __ZNSt3__110destroy_atB8ue170006IP8TreeNodeLi0EEEvPT_, symObjAddr: 0x10CC, symBinAddr: 0x100002F30, symSize: 0x24 }
  - { offsetInCU: 0x7930, offset: 0x7930, size: 0x8, addend: 0x0, symName: __ZNSt3__112__destroy_atB8ue170006IP8TreeNodeLi0EEEvPT_, symObjAddr: 0x10F0, symBinAddr: 0x100002F54, symSize: 0x10 }
  - { offsetInCU: 0x7967, offset: 0x7967, size: 0x8, addend: 0x0, symName: __ZNSt3__112__to_addressB8ue170006IP8TreeNodeEEPT_S4_, symObjAddr: 0x174C, symBinAddr: 0x1000035B0, symSize: 0x14 }
  - { offsetInCU: 0x799C, offset: 0x799C, size: 0x8, addend: 0x0, symName: __ZNSt3__119__libcpp_deallocateB8ue170006EPvmm, symObjAddr: 0x18B8, symBinAddr: 0x10000371C, symSize: 0x60 }
  - { offsetInCU: 0x7A01, offset: 0x7A01, size: 0x8, addend: 0x0, symName: __ZNSt3__124__is_overaligned_for_newB8ue170006Em, symObjAddr: 0x1918, symBinAddr: 0x10000377C, symSize: 0x20 }
  - { offsetInCU: 0x7A2F, offset: 0x7A2F, size: 0x8, addend: 0x0, symName: __ZNSt3__127__do_deallocate_handle_sizeB8ue170006IJSt11align_val_tEEEvPvmDpT_, symObjAddr: 0x1938, symBinAddr: 0x10000379C, symSize: 0x30 }
  - { offsetInCU: 0x7A82, offset: 0x7A82, size: 0x8, addend: 0x0, symName: __ZNSt3__127__do_deallocate_handle_sizeB8ue170006IJEEEvPvmDpT_, symObjAddr: 0x1968, symBinAddr: 0x1000037CC, symSize: 0x28 }
  - { offsetInCU: 0x7AC0, offset: 0x7AC0, size: 0x8, addend: 0x0, symName: __ZNSt3__124__libcpp_operator_deleteB8ue170006IJPvSt11align_val_tEEEvDpT_, symObjAddr: 0x1990, symBinAddr: 0x1000037F4, symSize: 0x2C }
  - { offsetInCU: 0x7B09, offset: 0x7B09, size: 0x8, addend: 0x0, symName: __ZNSt3__124__libcpp_operator_deleteB8ue170006IJPvEEEvDpT_, symObjAddr: 0x19BC, symBinAddr: 0x100003820, symSize: 0x24 }
  - { offsetInCU: 0x7B3E, offset: 0x7B3E, size: 0x8, addend: 0x0, symName: __ZNSt3__112__to_addressB8ue170006IPP8TreeNodeEEPT_S5_, symObjAddr: 0x1C3C, symBinAddr: 0x100003AA0, symSize: 0x14 }
  - { offsetInCU: 0x7B73, offset: 0x7B73, size: 0x8, addend: 0x0, symName: __ZNSt3__110destroy_atB8ue170006IPP8TreeNodeLi0EEEvPT_, symObjAddr: 0x1C50, symBinAddr: 0x100003AB4, symSize: 0x24 }
  - { offsetInCU: 0x7BAA, offset: 0x7BAA, size: 0x8, addend: 0x0, symName: __ZNSt3__112__destroy_atB8ue170006IPP8TreeNodeLi0EEEvPT_, symObjAddr: 0x1C74, symBinAddr: 0x100003AD8, symSize: 0x10 }
  - { offsetInCU: 0x7BE1, offset: 0x7BE1, size: 0x8, addend: 0x0, symName: __ZNSt3__116__pad_and_outputB8ue170006IcNS_11char_traitsIcEEEENS_19ostreambuf_iteratorIT_T0_EES6_PKS4_S8_S8_RNS_8ios_baseES4_, symObjAddr: 0x1FC0, symBinAddr: 0x100003E24, symSize: 0x240 }
  - { offsetInCU: 0x7CB0, offset: 0x7CB0, size: 0x8, addend: 0x0, symName: __ZNSt3__112__to_addressB8ue170006IcEEPT_S2_, symObjAddr: 0x2528, symBinAddr: 0x10000438C, symSize: 0x14 }
  - { offsetInCU: 0x7CE5, offset: 0x7CE5, size: 0x8, addend: 0x0, symName: __ZNSt3__19use_facetB8ue170006INS_5ctypeIcEEEERKT_RKNS_6localeE, symObjAddr: 0x27E0, symBinAddr: 0x100004644, symSize: 0x2C }
  - { offsetInCU: 0x81B2, offset: 0x81B2, size: 0x8, addend: 0x0, symName: __ZNSt3__118__constexpr_strlenB8ue170006EPKc, symObjAddr: 0x2878, symBinAddr: 0x1000046DC, symSize: 0x24 }
  - { offsetInCU: 0x81DE, offset: 0x81DE, size: 0x8, addend: 0x0, symName: __ZNSt3__13maxB8ue170006ImEERKT_S3_S3_, symObjAddr: 0x38D4, symBinAddr: 0x100005738, symSize: 0x2C }
  - { offsetInCU: 0x867A, offset: 0x867A, size: 0x8, addend: 0x0, symName: __ZNSt3__14swapB8ue170006IPPP8TreeNodeEENS_9enable_ifIXaasr21is_move_constructibleIT_EE5valuesr18is_move_assignableIS6_EE5valueEvE4typeERS6_S9_, symObjAddr: 0x3EE4, symBinAddr: 0x100005D48, symSize: 0x3C }
  - { offsetInCU: 0x86CB, offset: 0x86CB, size: 0x8, addend: 0x0, symName: __ZNSt3__14moveB8ue170006IPPP8TreeNodeS4_EET0_T_S6_S5_, symObjAddr: 0x3FC8, symBinAddr: 0x100005E2C, symSize: 0x40 }
  - { offsetInCU: 0x8741, offset: 0x8741, size: 0x8, addend: 0x0, symName: __ZNSt3__16__moveB8ue170006INS_17_ClassicAlgPolicyEPPP8TreeNodeS5_S5_EENS_4pairIT0_T2_EES7_T1_S8_, symObjAddr: 0x40CC, symBinAddr: 0x100005F30, symSize: 0x44 }
  - { offsetInCU: 0x87AD, offset: 0x87AD, size: 0x8, addend: 0x0, symName: __ZNSt3__123__dispatch_copy_or_moveB8ue170006INS_17_ClassicAlgPolicyENS_11__move_loopIS1_EENS_14__move_trivialEPPP8TreeNodeS8_S8_EENS_4pairIT2_T4_EESA_T3_SB_, symObjAddr: 0x4110, symBinAddr: 0x100005F74, symSize: 0x44 }
  - { offsetInCU: 0x882B, offset: 0x882B, size: 0x8, addend: 0x0, symName: __ZNSt3__121__unwrap_and_dispatchB8ue170006INS_10__overloadINS_11__move_loopINS_17_ClassicAlgPolicyEEENS_14__move_trivialEEEPPP8TreeNodeSA_SA_Li0EEENS_4pairIT0_T2_EESC_T1_SD_, symObjAddr: 0x4154, symBinAddr: 0x100005FB8, symSize: 0xB4 }
  - { offsetInCU: 0x88B9, offset: 0x88B9, size: 0x8, addend: 0x0, symName: __ZNSt3__114__unwrap_rangeB8ue170006IPPP8TreeNodeS4_EEDaT_T0_, symObjAddr: 0x4208, symBinAddr: 0x10000606C, symSize: 0x3C }
  - { offsetInCU: 0x8A7D, offset: 0x8A7D, size: 0x8, addend: 0x0, symName: __ZNSt3__113__unwrap_iterB8ue170006IPPP8TreeNodeNS_18__unwrap_iter_implIS4_Lb1EEELi0EEEDTclsrT0_8__unwrapclsr3stdE7declvalIT_EEEES8_, symObjAddr: 0x428C, symBinAddr: 0x1000060F0, symSize: 0x24 }
  - { offsetInCU: 0x8AC1, offset: 0x8AC1, size: 0x8, addend: 0x0, symName: __ZNSt3__19make_pairB8ue170006IPPP8TreeNodeS4_EENS_4pairINS_18__unwrap_ref_decayIT_E4typeENS6_IT0_E4typeEEEOS7_OSA_, symObjAddr: 0x42B0, symBinAddr: 0x100006114, symSize: 0x38 }
  - { offsetInCU: 0x8B10, offset: 0x8B10, size: 0x8, addend: 0x0, symName: __ZNSt3__114__rewrap_rangeB8ue170006IPPP8TreeNodeS4_S4_EET0_S5_T1_, symObjAddr: 0x42E8, symBinAddr: 0x10000614C, symSize: 0x2C }
  - { offsetInCU: 0x8B65, offset: 0x8B65, size: 0x8, addend: 0x0, symName: __ZNSt3__113__rewrap_iterB8ue170006IPPP8TreeNodeS4_NS_18__unwrap_iter_implIS4_Lb1EEEEET_S7_T0_, symObjAddr: 0x4314, symBinAddr: 0x100006178, symSize: 0x3C }
  - { offsetInCU: 0x8C0A, offset: 0x8C0A, size: 0x8, addend: 0x0, symName: __ZNSt3__119__copy_trivial_implB8ue170006IPP8TreeNodeS3_EENS_4pairIPT_PT0_EES6_S6_S8_, symObjAddr: 0x4418, symBinAddr: 0x10000627C, symSize: 0x80 }
  - { offsetInCU: 0x8C72, offset: 0x8C72, size: 0x8, addend: 0x0, symName: __ZNSt3__119__constexpr_memmoveB8ue170006IPP8TreeNodeS3_Li0EEEPT_S5_PT0_NS_15__element_countE, symObjAddr: 0x4498, symBinAddr: 0x1000062FC, symSize: 0x64 }
  - { offsetInCU: 0x8CE0, offset: 0x8CE0, size: 0x8, addend: 0x0, symName: __ZNSt3__19make_pairB8ue170006IRPPP8TreeNodeS4_EENS_4pairINS_18__unwrap_ref_decayIT_E4typeENS7_IT0_E4typeEEEOS8_OSB_, symObjAddr: 0x44FC, symBinAddr: 0x100006360, symSize: 0x38 }
  - { offsetInCU: 0x8D82, offset: 0x8D82, size: 0x8, addend: 0x0, symName: __ZNSt3__18distanceB8ue170006INS_13move_iteratorIPPP8TreeNodeEEEENS_15iterator_traitsIT_E15difference_typeES8_S8_, symObjAddr: 0x4720, symBinAddr: 0x100006584, symSize: 0x3C }
  - { offsetInCU: 0x8DEA, offset: 0x8DEA, size: 0x8, addend: 0x0, symName: __ZNSt3__112construct_atB8ue170006IPP8TreeNodeJS3_EPS3_EEPT_S6_DpOT0_, symObjAddr: 0x48AC, symBinAddr: 0x100006710, symSize: 0x2C }
  - { offsetInCU: 0x8E5A, offset: 0x8E5A, size: 0x8, addend: 0x0, symName: __ZNSt3__110__distanceB8ue170006INS_13move_iteratorIPPP8TreeNodeEEEENS_15iterator_traitsIT_E15difference_typeES8_S8_NS_26random_access_iterator_tagE, symObjAddr: 0x4954, symBinAddr: 0x1000067B8, symSize: 0x30 }
  - { offsetInCU: 0x8EA7, offset: 0x8EA7, size: 0x8, addend: 0x0, symName: __ZNSt3__1miB8ue170006IPPP8TreeNodeS4_EEDTmicldtfp_4baseEcldtfp0_4baseEERKNS_13move_iteratorIT_EERKNS6_IT0_EE, symObjAddr: 0x4984, symBinAddr: 0x1000067E8, symSize: 0x4C }
  - { offsetInCU: 0x8EF6, offset: 0x8EF6, size: 0x8, addend: 0x0, symName: __ZNSt3__112construct_atB8ue170006IPP8TreeNodeJRKS3_EPS3_EEPT_S8_DpOT0_, symObjAddr: 0x4A04, symBinAddr: 0x100006868, symSize: 0x2C }
  - { offsetInCU: 0x8F66, offset: 0x8F66, size: 0x8, addend: 0x0, symName: __ZNSt3__117__libcpp_allocateB8ue170006Emm, symObjAddr: 0x4AE4, symBinAddr: 0x100006948, symSize: 0x60 }
  - { offsetInCU: 0x91AC, offset: 0x91AC, size: 0x8, addend: 0x0, symName: __ZNSt3__121__libcpp_operator_newB8ue170006IJmSt11align_val_tEEEPvDpT_, symObjAddr: 0x4B60, symBinAddr: 0x1000069C4, symSize: 0x2C }
  - { offsetInCU: 0x91F9, offset: 0x91F9, size: 0x8, addend: 0x0, symName: __ZNSt3__121__libcpp_operator_newB8ue170006IJmEEEPvDpT_, symObjAddr: 0x4B8C, symBinAddr: 0x1000069F0, symSize: 0x24 }
  - { offsetInCU: 0x9232, offset: 0x9232, size: 0x8, addend: 0x0, symName: __ZNSt3__113move_backwardB8ue170006IPPP8TreeNodeS4_EET0_T_S6_S5_, symObjAddr: 0x4BB0, symBinAddr: 0x100006A14, symSize: 0x40 }
  - { offsetInCU: 0x928C, offset: 0x928C, size: 0x8, addend: 0x0, symName: __ZNSt3__115__move_backwardB8ue170006INS_17_ClassicAlgPolicyEPPP8TreeNodeS5_S5_EENS_4pairIT0_T2_EES7_T1_S8_, symObjAddr: 0x4BF0, symBinAddr: 0x100006A54, symSize: 0x44 }
  - { offsetInCU: 0x92F8, offset: 0x92F8, size: 0x8, addend: 0x0, symName: __ZNSt3__123__dispatch_copy_or_moveB8ue170006INS_17_ClassicAlgPolicyENS_20__move_backward_loopIS1_EENS_23__move_backward_trivialEPPP8TreeNodeS8_S8_EENS_4pairIT2_T4_EESA_T3_SB_, symObjAddr: 0x4C34, symBinAddr: 0x100006A98, symSize: 0x44 }
  - { offsetInCU: 0x9376, offset: 0x9376, size: 0x8, addend: 0x0, symName: __ZNSt3__121__unwrap_and_dispatchB8ue170006INS_10__overloadINS_20__move_backward_loopINS_17_ClassicAlgPolicyEEENS_23__move_backward_trivialEEEPPP8TreeNodeSA_SA_Li0EEENS_4pairIT0_T2_EESC_T1_SD_, symObjAddr: 0x4C78, symBinAddr: 0x100006ADC, symSize: 0xB4 }
  - { offsetInCU: 0x944A, offset: 0x944A, size: 0x8, addend: 0x0, symName: __ZNSt3__128__copy_backward_trivial_implB8ue170006IPP8TreeNodeS3_EENS_4pairIPT_PT0_EES6_S6_S8_, symObjAddr: 0x4D74, symBinAddr: 0x100006BD8, symSize: 0x90 }
  - { offsetInCU: 0x94B2, offset: 0x94B2, size: 0x8, addend: 0x0, symName: __ZNSt3__19make_pairB8ue170006IRPPP8TreeNodeS5_EENS_4pairINS_18__unwrap_ref_decayIT_E4typeENS7_IT0_E4typeEEEOS8_OSB_, symObjAddr: 0x4E04, symBinAddr: 0x100006C68, symSize: 0x38 }
  - { offsetInCU: 0x9501, offset: 0x9501, size: 0x8, addend: 0x0, symName: __ZNSt3__13maxB8ue170006ImNS_6__lessIvvEEEERKT_S5_S5_T0_, symObjAddr: 0x4EAC, symBinAddr: 0x100006D10, symSize: 0x54 }
  - { offsetInCU: 0x95A0, offset: 0x95A0, size: 0x8, addend: 0x0, symName: __ZNSt3__119__allocate_at_leastB8ue170006INS_9allocatorIPP8TreeNodeEEEENS_19__allocation_resultINS_16allocator_traitsIT_E7pointerEEERS8_m, symObjAddr: 0x5044, symBinAddr: 0x100006EA8, symSize: 0x40 }
  - { offsetInCU: 0x9608, offset: 0x9608, size: 0x8, addend: 0x0, symName: __ZNSt3__112construct_atB8ue170006IP8TreeNodeJRKS2_EPS2_EEPT_S7_DpOT0_, symObjAddr: 0x567C, symBinAddr: 0x1000074E0, symSize: 0x2C }
  - { offsetInCU: 0x97ED, offset: 0x97ED, size: 0x8, addend: 0x0, symName: __ZSt28__throw_bad_array_new_lengthB8ue170006v, symObjAddr: 0x4AB0, symBinAddr: 0x100006914, symSize: 0x34 }
  - { offsetInCU: 0xC263, offset: 0xC263, size: 0x8, addend: 0x0, symName: __Z9printTreeP8TreeNode, symObjAddr: 0x0, symBinAddr: 0x100001E64, symSize: 0x188 }
  - { offsetInCU: 0xC2AE, offset: 0xC2AE, size: 0x8, addend: 0x0, symName: __ZNSt3__113basic_ostreamIcNS_11char_traitsIcEEElsB8ue170006EPFRS3_S4_E, symObjAddr: 0x1D0, symBinAddr: 0x100002034, symSize: 0x2C }
  - { offsetInCU: 0xC31E, offset: 0xC31E, size: 0x8, addend: 0x0, symName: __ZNSt3__15queueIP8TreeNodeNS_5dequeIS2_NS_9allocatorIS2_EEEEEC1B8ue170006Ev, symObjAddr: 0x254, symBinAddr: 0x1000020B8, symSize: 0x2C }
  - { offsetInCU: 0xC348, offset: 0xC348, size: 0x8, addend: 0x0, symName: __ZNSt3__15queueIP8TreeNodeNS_5dequeIS2_NS_9allocatorIS2_EEEEE4pushB8ue170006ERKS2_, symObjAddr: 0x280, symBinAddr: 0x1000020E4, symSize: 0x2C }
  - { offsetInCU: 0xC37D, offset: 0xC37D, size: 0x8, addend: 0x0, symName: __ZNKSt3__15queueIP8TreeNodeNS_5dequeIS2_NS_9allocatorIS2_EEEEE5emptyB8ue170006Ev, symObjAddr: 0x2AC, symBinAddr: 0x100002110, symSize: 0x28 }
  - { offsetInCU: 0xC3A3, offset: 0xC3A3, size: 0x8, addend: 0x0, symName: __ZNSt3__15queueIP8TreeNodeNS_5dequeIS2_NS_9allocatorIS2_EEEEE5frontB8ue170006Ev, symObjAddr: 0x2D4, symBinAddr: 0x100002138, symSize: 0x24 }
  - { offsetInCU: 0xC3C9, offset: 0xC3C9, size: 0x8, addend: 0x0, symName: __ZNSt3__15queueIP8TreeNodeNS_5dequeIS2_NS_9allocatorIS2_EEEEE3popB8ue170006Ev, symObjAddr: 0x2F8, symBinAddr: 0x10000215C, symSize: 0x24 }
  - { offsetInCU: 0xC3EF, offset: 0xC3EF, size: 0x8, addend: 0x0, symName: __ZNSt3__15queueIP8TreeNodeNS_5dequeIS2_NS_9allocatorIS2_EEEEED1Ev, symObjAddr: 0x31C, symBinAddr: 0x100002180, symSize: 0x2C }
  - { offsetInCU: 0xC41C, offset: 0xC41C, size: 0x8, addend: 0x0, symName: _main, symObjAddr: 0x348, symBinAddr: 0x1000021AC, symSize: 0x390 }
  - { offsetInCU: 0xC49A, offset: 0xC49A, size: 0x8, addend: 0x0, symName: __ZN8TreeNodeC1Ei, symObjAddr: 0x6D8, symBinAddr: 0x10000253C, symSize: 0x34 }
  - { offsetInCU: 0xC4FC, offset: 0xC4FC, size: 0x8, addend: 0x0, symName: __ZN8Solution10invertTreeEP8TreeNode, symObjAddr: 0x70C, symBinAddr: 0x100002570, symSize: 0x98 }
  - { offsetInCU: 0xC54C, offset: 0xC54C, size: 0x8, addend: 0x0, symName: __ZNSt3__15queueIP8TreeNodeNS_5dequeIS2_NS_9allocatorIS2_EEEEED2Ev, symObjAddr: 0x7A4, symBinAddr: 0x100002608, symSize: 0x2C }
  - { offsetInCU: 0xC579, offset: 0xC579, size: 0x8, addend: 0x0, symName: __ZNSt3__15dequeIP8TreeNodeNS_9allocatorIS2_EEED1B8ue170006Ev, symObjAddr: 0x7D0, symBinAddr: 0x100002634, symSize: 0x2C }
  - { offsetInCU: 0xC5A3, offset: 0xC5A3, size: 0x8, addend: 0x0, symName: __ZNSt3__15dequeIP8TreeNodeNS_9allocatorIS2_EEED2B8ue170006Ev, symObjAddr: 0x7FC, symBinAddr: 0x100002660, symSize: 0xA4 }
  - { offsetInCU: 0xC5F9, offset: 0xC5F9, size: 0x8, addend: 0x0, symName: __ZNSt3__15dequeIP8TreeNodeNS_9allocatorIS2_EEE5clearEv, symObjAddr: 0x8A0, symBinAddr: 0x100002704, symSize: 0x194 }
  - { offsetInCU: 0xC654, offset: 0xC654, size: 0x8, addend: 0x0, symName: __ZNKSt3__15dequeIP8TreeNodeNS_9allocatorIS2_EEE17__annotate_deleteB8ue170006Ev, symObjAddr: 0xA34, symBinAddr: 0x100002898, symSize: 0xE8 }
  - { offsetInCU: 0xC697, offset: 0xC697, size: 0x8, addend: 0x0, symName: __ZNSt3__114__split_bufferIPP8TreeNodeNS_9allocatorIS3_EEE5beginB8ue170006Ev, symObjAddr: 0xB1C, symBinAddr: 0x100002980, symSize: 0x18 }
  - { offsetInCU: 0xC6BD, offset: 0xC6BD, size: 0x8, addend: 0x0, symName: __ZNSt3__114__split_bufferIPP8TreeNodeNS_9allocatorIS3_EEE3endB8ue170006Ev, symObjAddr: 0xB34, symBinAddr: 0x100002998, symSize: 0x18 }
  - { offsetInCU: 0xC6E3, offset: 0xC6E3, size: 0x8, addend: 0x0, symName: __ZNSt3__116allocator_traitsINS_9allocatorIP8TreeNodeEEE10deallocateB8ue170006ERS4_PS3_m, symObjAddr: 0xB4C, symBinAddr: 0x1000029B0, symSize: 0x34 }
  - { offsetInCU: 0xC725, offset: 0xC725, size: 0x8, addend: 0x0, symName: __ZNSt3__15dequeIP8TreeNodeNS_9allocatorIS2_EEE7__allocB8ue170006Ev, symObjAddr: 0xB80, symBinAddr: 0x1000029E4, symSize: 0x28 }
  - { offsetInCU: 0xC74B, offset: 0xC74B, size: 0x8, addend: 0x0, symName: __ZNSt3__114__split_bufferIPP8TreeNodeNS_9allocatorIS3_EEED1Ev, symObjAddr: 0xBA8, symBinAddr: 0x100002A0C, symSize: 0x2C }
  - { offsetInCU: 0xC777, offset: 0xC777, size: 0x8, addend: 0x0, symName: __ZNSt3__15dequeIP8TreeNodeNS_9allocatorIS2_EEE5beginB8ue170006Ev, symObjAddr: 0xBD4, symBinAddr: 0x100002A38, symSize: 0xB8 }
  - { offsetInCU: 0xC7AC, offset: 0xC7AC, size: 0x8, addend: 0x0, symName: __ZNSt3__15dequeIP8TreeNodeNS_9allocatorIS2_EEE3endB8ue170006Ev, symObjAddr: 0xC8C, symBinAddr: 0x100002AF0, symSize: 0xBC }
  - { offsetInCU: 0xC7F0, offset: 0xC7F0, size: 0x8, addend: 0x0, symName: __ZNSt3__116allocator_traitsINS_9allocatorIP8TreeNodeEEE7destroyB8ue170006IS3_vvEEvRS4_PT_, symObjAddr: 0xD88, symBinAddr: 0x100002BEC, symSize: 0x28 }
  - { offsetInCU: 0xC82B, offset: 0xC82B, size: 0x8, addend: 0x0, symName: __ZNKSt3__116__deque_iteratorIP8TreeNodePS2_RS2_PS3_lLl512EEdeB8ue170006Ev, symObjAddr: 0xDB0, symBinAddr: 0x100002C14, symSize: 0x18 }
  - { offsetInCU: 0xC851, offset: 0xC851, size: 0x8, addend: 0x0, symName: __ZNSt3__116__deque_iteratorIP8TreeNodePS2_RS2_PS3_lLl512EEppB8ue170006Ev, symObjAddr: 0xDC8, symBinAddr: 0x100002C2C, symSize: 0x70 }
  - { offsetInCU: 0xC877, offset: 0xC877, size: 0x8, addend: 0x0, symName: __ZNSt3__15dequeIP8TreeNodeNS_9allocatorIS2_EEE6__sizeB8ue170006Ev, symObjAddr: 0xE38, symBinAddr: 0x100002C9C, symSize: 0x28 }
  - { offsetInCU: 0xC89D, offset: 0xC89D, size: 0x8, addend: 0x0, symName: __ZNKSt3__114__split_bufferIPP8TreeNodeNS_9allocatorIS3_EEE4sizeB8ue170006Ev, symObjAddr: 0xE60, symBinAddr: 0x100002CC4, symSize: 0x28 }
  - { offsetInCU: 0xC8C3, offset: 0xC8C3, size: 0x8, addend: 0x0, symName: __ZNSt3__114__split_bufferIPP8TreeNodeNS_9allocatorIS3_EEE5frontB8ue170006Ev, symObjAddr: 0xE88, symBinAddr: 0x100002CEC, symSize: 0x18 }
  - { offsetInCU: 0xC8E9, offset: 0xC8E9, size: 0x8, addend: 0x0, symName: __ZNSt3__114__split_bufferIPP8TreeNodeNS_9allocatorIS3_EEE9pop_frontB8ue170006Ev, symObjAddr: 0xEA0, symBinAddr: 0x100002D04, symSize: 0x2C }
  - { offsetInCU: 0xC90F, offset: 0xC90F, size: 0x8, addend: 0x0, symName: __ZNKSt3__15dequeIP8TreeNodeNS_9allocatorIS2_EEE14__annotate_newB8ue170006Em, symObjAddr: 0xECC, symBinAddr: 0x100002D30, symSize: 0xB8 }
  - { offsetInCU: 0xC944, offset: 0xC944, size: 0x8, addend: 0x0, symName: __ZNKSt3__114__split_bufferIPP8TreeNodeNS_9allocatorIS3_EEE5emptyB8ue170006Ev, symObjAddr: 0xF84, symBinAddr: 0x100002DE8, symSize: 0x28 }
  - { offsetInCU: 0xC96A, offset: 0xC96A, size: 0x8, addend: 0x0, symName: __ZNSt3__116__deque_iteratorIP8TreeNodePS2_RS2_PS3_lLl512EEC1B8ue170006ES5_S3_, symObjAddr: 0xFAC, symBinAddr: 0x100002E10, symSize: 0x3C }
  - { offsetInCU: 0xC9B2, offset: 0xC9B2, size: 0x8, addend: 0x0, symName: __ZNSt3__116__deque_iteratorIP8TreeNodePS2_RS2_PS3_lLl512EEC2B8ue170006ES5_S3_, symObjAddr: 0xFE8, symBinAddr: 0x100002E4C, symSize: 0x2C }
  - { offsetInCU: 0xC9FA, offset: 0xC9FA, size: 0x8, addend: 0x0, symName: __ZNKSt3__15dequeIP8TreeNodeNS_9allocatorIS2_EEE4sizeB8ue170006Ev, symObjAddr: 0x1014, symBinAddr: 0x100002E78, symSize: 0x28 }
  - { offsetInCU: 0xCA20, offset: 0xCA20, size: 0x8, addend: 0x0, symName: __ZNKSt3__15dequeIP8TreeNodeNS_9allocatorIS2_EEE6__sizeB8ue170006Ev, symObjAddr: 0x103C, symBinAddr: 0x100002EA0, symSize: 0x28 }
  - { offsetInCU: 0xCA46, offset: 0xCA46, size: 0x8, addend: 0x0, symName: __ZNKSt3__117__compressed_pairImNS_9allocatorIP8TreeNodeEEE5firstB8ue170006Ev, symObjAddr: 0x1064, symBinAddr: 0x100002EC8, symSize: 0x24 }
  - { offsetInCU: 0xCA6C, offset: 0xCA6C, size: 0x8, addend: 0x0, symName: __ZNKSt3__122__compressed_pair_elemImLi0ELb0EE5__getB8ue170006Ev, symObjAddr: 0x1088, symBinAddr: 0x100002EEC, symSize: 0x14 }
  - { offsetInCU: 0xCA92, offset: 0xCA92, size: 0x8, addend: 0x0, symName: __ZNSt3__117__compressed_pairImNS_9allocatorIP8TreeNodeEEE5firstB8ue170006Ev, symObjAddr: 0x1100, symBinAddr: 0x100002F64, symSize: 0x24 }
  - { offsetInCU: 0xCAB8, offset: 0xCAB8, size: 0x8, addend: 0x0, symName: __ZNSt3__122__compressed_pair_elemImLi0ELb0EE5__getB8ue170006Ev, symObjAddr: 0x1124, symBinAddr: 0x100002F88, symSize: 0x14 }
  - { offsetInCU: 0xCADE, offset: 0xCADE, size: 0x8, addend: 0x0, symName: __ZNSt3__114__split_bufferIPP8TreeNodeNS_9allocatorIS3_EEE19__destruct_at_beginB8ue170006EPS3_, symObjAddr: 0x1138, symBinAddr: 0x100002F9C, symSize: 0x2C }
  - { offsetInCU: 0xCB12, offset: 0xCB12, size: 0x8, addend: 0x0, symName: __ZNSt3__114__split_bufferIPP8TreeNodeNS_9allocatorIS3_EEE19__destruct_at_beginEPS3_NS_17integral_constantIbLb1EEE, symObjAddr: 0x1164, symBinAddr: 0x100002FC8, symSize: 0x20 }
  - { offsetInCU: 0xCB52, offset: 0xCB52, size: 0x8, addend: 0x0, symName: __ZNKSt3__15dequeIP8TreeNodeNS_9allocatorIS2_EEE18__annotate_from_toB8ue170006EmmNS5_22__asan_annotation_typeENS5_23__asan_annotation_placeE, symObjAddr: 0x1184, symBinAddr: 0x100002FE8, symSize: 0x580 }
  - { offsetInCU: 0xCD0E, offset: 0xCD0E, size: 0x8, addend: 0x0, symName: __ZNKSt3__114__split_bufferIPP8TreeNodeNS_9allocatorIS3_EEE5beginB8ue170006Ev, symObjAddr: 0x1704, symBinAddr: 0x100003568, symSize: 0x18 }
  - { offsetInCU: 0xCD34, offset: 0xCD34, size: 0x8, addend: 0x0, symName: __ZNKSt3__15dequeIP8TreeNodeNS_9allocatorIS2_EEE5emptyB8ue170006Ev, symObjAddr: 0x171C, symBinAddr: 0x100003580, symSize: 0x30 }
  - { offsetInCU: 0xCD5A, offset: 0xCD5A, size: 0x8, addend: 0x0, symName: __ZNKSt3__15dequeIP8TreeNodeNS_9allocatorIS2_EEE44__annotate_double_ended_contiguous_containerB8ue170006EPKvS7_S7_S7_S7_S7_, symObjAddr: 0x1760, symBinAddr: 0x1000035C4, symSize: 0x28 }
  - { offsetInCU: 0xCDC8, offset: 0xCDC8, size: 0x8, addend: 0x0, symName: __ZNKSt3__15dequeIP8TreeNodeNS_9allocatorIS2_EEE22__annotate_whole_blockB8ue170006EmNS5_22__asan_annotation_typeE, symObjAddr: 0x1788, symBinAddr: 0x1000035EC, symSize: 0xAC }
  - { offsetInCU: 0xCE39, offset: 0xCE39, size: 0x8, addend: 0x0, symName: __ZNKSt3__15dequeIP8TreeNodeNS_9allocatorIS2_EEE23__annotate_poison_blockB8ue170006EPKvS7_, symObjAddr: 0x1834, symBinAddr: 0x100003698, symSize: 0x44 }
  - { offsetInCU: 0xCE7D, offset: 0xCE7D, size: 0x8, addend: 0x0, symName: __ZNSt3__19allocatorIP8TreeNodeE10deallocateB8ue170006EPS2_m, symObjAddr: 0x1878, symBinAddr: 0x1000036DC, symSize: 0x40 }
  - { offsetInCU: 0xCEBF, offset: 0xCEBF, size: 0x8, addend: 0x0, symName: __ZNSt3__117__compressed_pairImNS_9allocatorIP8TreeNodeEEE6secondB8ue170006Ev, symObjAddr: 0x19E0, symBinAddr: 0x100003844, symSize: 0x24 }
  - { offsetInCU: 0xCEE5, offset: 0xCEE5, size: 0x8, addend: 0x0, symName: __ZNSt3__122__compressed_pair_elemINS_9allocatorIP8TreeNodeEELi1ELb1EE5__getB8ue170006Ev, symObjAddr: 0x1A04, symBinAddr: 0x100003868, symSize: 0x14 }
  - { offsetInCU: 0xCF0B, offset: 0xCF0B, size: 0x8, addend: 0x0, symName: __ZNSt3__114__split_bufferIPP8TreeNodeNS_9allocatorIS3_EEED2Ev, symObjAddr: 0x1A18, symBinAddr: 0x10000387C, symSize: 0x8C }
  - { offsetInCU: 0xCF37, offset: 0xCF37, size: 0x8, addend: 0x0, symName: __ZNSt3__114__split_bufferIPP8TreeNodeNS_9allocatorIS3_EEE5clearB8ue170006Ev, symObjAddr: 0x1AA4, symBinAddr: 0x100003908, symSize: 0x28 }
  - { offsetInCU: 0xCF5D, offset: 0xCF5D, size: 0x8, addend: 0x0, symName: __ZNSt3__116allocator_traitsINS_9allocatorIPP8TreeNodeEEE10deallocateB8ue170006ERS5_PS4_m, symObjAddr: 0x1ACC, symBinAddr: 0x100003930, symSize: 0x34 }
  - { offsetInCU: 0xCF9F, offset: 0xCF9F, size: 0x8, addend: 0x0, symName: __ZNSt3__114__split_bufferIPP8TreeNodeNS_9allocatorIS3_EEE7__allocB8ue170006Ev, symObjAddr: 0x1B00, symBinAddr: 0x100003964, symSize: 0x28 }
  - { offsetInCU: 0xCFC5, offset: 0xCFC5, size: 0x8, addend: 0x0, symName: __ZNKSt3__114__split_bufferIPP8TreeNodeNS_9allocatorIS3_EEE8capacityB8ue170006Ev, symObjAddr: 0x1B28, symBinAddr: 0x10000398C, symSize: 0x40 }
  - { offsetInCU: 0xCFEB, offset: 0xCFEB, size: 0x8, addend: 0x0, symName: __ZNSt3__114__split_bufferIPP8TreeNodeNS_9allocatorIS3_EEE17__destruct_at_endB8ue170006EPS3_, symObjAddr: 0x1B68, symBinAddr: 0x1000039CC, symSize: 0x2C }
  - { offsetInCU: 0xD01F, offset: 0xD01F, size: 0x8, addend: 0x0, symName: __ZNSt3__114__split_bufferIPP8TreeNodeNS_9allocatorIS3_EEE17__destruct_at_endB8ue170006EPS3_NS_17integral_constantIbLb0EEE, symObjAddr: 0x1B94, symBinAddr: 0x1000039F8, symSize: 0x80 }
  - { offsetInCU: 0xD05F, offset: 0xD05F, size: 0x8, addend: 0x0, symName: __ZNSt3__116allocator_traitsINS_9allocatorIPP8TreeNodeEEE7destroyB8ue170006IS4_vvEEvRS5_PT_, symObjAddr: 0x1C14, symBinAddr: 0x100003A78, symSize: 0x28 }
  - { offsetInCU: 0xD09A, offset: 0xD09A, size: 0x8, addend: 0x0, symName: __ZNSt3__19allocatorIPP8TreeNodeE10deallocateB8ue170006EPS3_m, symObjAddr: 0x1C84, symBinAddr: 0x100003AE8, symSize: 0x40 }
  - { offsetInCU: 0xD0DC, offset: 0xD0DC, size: 0x8, addend: 0x0, symName: __ZNSt3__117__compressed_pairIPPP8TreeNodeNS_9allocatorIS3_EEE6secondB8ue170006Ev, symObjAddr: 0x1CC4, symBinAddr: 0x100003B28, symSize: 0x24 }
  - { offsetInCU: 0xD102, offset: 0xD102, size: 0x8, addend: 0x0, symName: __ZNSt3__122__compressed_pair_elemINS_9allocatorIPP8TreeNodeEELi1ELb1EE5__getB8ue170006Ev, symObjAddr: 0x1CE8, symBinAddr: 0x100003B4C, symSize: 0x14 }
  - { offsetInCU: 0xD128, offset: 0xD128, size: 0x8, addend: 0x0, symName: __ZNKSt3__114__split_bufferIPP8TreeNodeNS_9allocatorIS3_EEE9__end_capB8ue170006Ev, symObjAddr: 0x1CFC, symBinAddr: 0x100003B60, symSize: 0x28 }
  - { offsetInCU: 0xD14E, offset: 0xD14E, size: 0x8, addend: 0x0, symName: __ZNKSt3__117__compressed_pairIPPP8TreeNodeNS_9allocatorIS3_EEE5firstB8ue170006Ev, symObjAddr: 0x1D24, symBinAddr: 0x100003B88, symSize: 0x24 }
  - { offsetInCU: 0xD174, offset: 0xD174, size: 0x8, addend: 0x0, symName: __ZNKSt3__122__compressed_pair_elemIPPP8TreeNodeLi0ELb0EE5__getB8ue170006Ev, symObjAddr: 0x1D48, symBinAddr: 0x100003BAC, symSize: 0x14 }
  - { offsetInCU: 0xD19A, offset: 0xD19A, size: 0x8, addend: 0x0, symName: __ZN8TreeNodeC2Ei, symObjAddr: 0x1D5C, symBinAddr: 0x100003BC0, symSize: 0x28 }
  - { offsetInCU: 0xD1D2, offset: 0xD1D2, size: 0x8, addend: 0x0, symName: __ZNSt3__111char_traitsIcE6lengthB8ue170006EPKc, symObjAddr: 0x1F70, symBinAddr: 0x100003DD4, symSize: 0x34 }
  - { offsetInCU: 0xD213, offset: 0xD213, size: 0x8, addend: 0x0, symName: __ZNKSt3__113basic_ostreamIcNS_11char_traitsIcEEE6sentrycvbB8ue170006Ev, symObjAddr: 0x1FA4, symBinAddr: 0x100003E08, symSize: 0x1C }
  - { offsetInCU: 0xD239, offset: 0xD239, size: 0x8, addend: 0x0, symName: __ZNSt3__119ostreambuf_iteratorIcNS_11char_traitsIcEEEC1B8ue170006ERNS_13basic_ostreamIcS2_EE, symObjAddr: 0x2200, symBinAddr: 0x100004064, symSize: 0x34 }
  - { offsetInCU: 0xD271, offset: 0xD271, size: 0x8, addend: 0x0, symName: __ZNKSt3__18ios_base5flagsB8ue170006Ev, symObjAddr: 0x2234, symBinAddr: 0x100004098, symSize: 0x18 }
  - { offsetInCU: 0xD299, offset: 0xD299, size: 0x8, addend: 0x0, symName: __ZNKSt3__19basic_iosIcNS_11char_traitsIcEEE4fillB8ue170006Ev, symObjAddr: 0x224C, symBinAddr: 0x1000040B0, symSize: 0x64 }
  - { offsetInCU: 0xD2C1, offset: 0xD2C1, size: 0x8, addend: 0x0, symName: __ZNKSt3__119ostreambuf_iteratorIcNS_11char_traitsIcEEE6failedB8ue170006Ev, symObjAddr: 0x22B0, symBinAddr: 0x100004114, symSize: 0x24 }
  - { offsetInCU: 0xD2E7, offset: 0xD2E7, size: 0x8, addend: 0x0, symName: __ZNSt3__19basic_iosIcNS_11char_traitsIcEEE8setstateB8ue170006Ej, symObjAddr: 0x22D4, symBinAddr: 0x100004138, symSize: 0x2C }
  - { offsetInCU: 0xD31C, offset: 0xD31C, size: 0x8, addend: 0x0, symName: __ZNKSt3__18ios_base5widthB8ue170006Ev, symObjAddr: 0x2300, symBinAddr: 0x100004164, symSize: 0x18 }
  - { offsetInCU: 0xD344, offset: 0xD344, size: 0x8, addend: 0x0, symName: __ZNSt3__115basic_streambufIcNS_11char_traitsIcEEE5sputnB8ue170006EPKcl, symObjAddr: 0x2318, symBinAddr: 0x10000417C, symSize: 0x3C }
  - { offsetInCU: 0xD386, offset: 0xD386, size: 0x8, addend: 0x0, symName: __ZNSt3__112basic_stringIcNS_11char_traitsIcEENS_9allocatorIcEEEC1B8ue170006Emc, symObjAddr: 0x2354, symBinAddr: 0x1000041B8, symSize: 0x3C }
  - { offsetInCU: 0xD3CE, offset: 0xD3CE, size: 0x8, addend: 0x0, symName: __ZNSt3__112basic_stringIcNS_11char_traitsIcEENS_9allocatorIcEEE4dataB8ue170006Ev, symObjAddr: 0x2390, symBinAddr: 0x1000041F4, symSize: 0x28 }
  - { offsetInCU: 0xD3F4, offset: 0xD3F4, size: 0x8, addend: 0x0, symName: __ZNSt3__18ios_base5widthB8ue170006El, symObjAddr: 0x23B8, symBinAddr: 0x10000421C, symSize: 0x2C }
  - { offsetInCU: 0xD43A, offset: 0xD43A, size: 0x8, addend: 0x0, symName: __ZNSt3__112basic_stringIcNS_11char_traitsIcEENS_9allocatorIcEEEC2B8ue170006Emc, symObjAddr: 0x23E4, symBinAddr: 0x100004248, symSize: 0x4C }
  - { offsetInCU: 0xD487, offset: 0xD487, size: 0x8, addend: 0x0, symName: __ZNSt3__117__compressed_pairINS_12basic_stringIcNS_11char_traitsIcEENS_9allocatorIcEEE5__repES5_EC1B8ue170006INS_18__default_init_tagESA_EEOT_OT0_, symObjAddr: 0x2430, symBinAddr: 0x100004294, symSize: 0x3C }
  - { offsetInCU: 0xD4DF, offset: 0xD4DF, size: 0x8, addend: 0x0, symName: __ZNSt3__117__compressed_pairINS_12basic_stringIcNS_11char_traitsIcEENS_9allocatorIcEEE5__repES5_EC2B8ue170006INS_18__default_init_tagESA_EEOT_OT0_, symObjAddr: 0x246C, symBinAddr: 0x1000042D0, symSize: 0x3C }
  - { offsetInCU: 0xD537, offset: 0xD537, size: 0x8, addend: 0x0, symName: __ZNSt3__122__compressed_pair_elemINS_12basic_stringIcNS_11char_traitsIcEENS_9allocatorIcEEE5__repELi0ELb0EEC2B8ue170006ENS_18__default_init_tagE, symObjAddr: 0x24A8, symBinAddr: 0x10000430C, symSize: 0x14 }
  - { offsetInCU: 0xD56B, offset: 0xD56B, size: 0x8, addend: 0x0, symName: __ZNSt3__122__compressed_pair_elemINS_9allocatorIcEELi1ELb1EEC2B8ue170006ENS_18__default_init_tagE, symObjAddr: 0x24BC, symBinAddr: 0x100004320, symSize: 0x2C }
  - { offsetInCU: 0xD59F, offset: 0xD59F, size: 0x8, addend: 0x0, symName: __ZNSt3__19allocatorIcEC2B8ue170006Ev, symObjAddr: 0x24E8, symBinAddr: 0x10000434C, symSize: 0x2C }
  - { offsetInCU: 0xD5C9, offset: 0xD5C9, size: 0x8, addend: 0x0, symName: __ZNSt3__116__non_trivial_ifILb1ENS_9allocatorIcEEEC2B8ue170006Ev, symObjAddr: 0x2514, symBinAddr: 0x100004378, symSize: 0x14 }
  - { offsetInCU: 0xD5F3, offset: 0xD5F3, size: 0x8, addend: 0x0, symName: __ZNSt3__112basic_stringIcNS_11char_traitsIcEENS_9allocatorIcEEE13__get_pointerB8ue170006Ev, symObjAddr: 0x253C, symBinAddr: 0x1000043A0, symSize: 0x54 }
  - { offsetInCU: 0xD619, offset: 0xD619, size: 0x8, addend: 0x0, symName: __ZNKSt3__112basic_stringIcNS_11char_traitsIcEENS_9allocatorIcEEE9__is_longB8ue170006Ev, symObjAddr: 0x2590, symBinAddr: 0x1000043F4, symSize: 0x38 }
  - { offsetInCU: 0xD63F, offset: 0xD63F, size: 0x8, addend: 0x0, symName: __ZNSt3__112basic_stringIcNS_11char_traitsIcEENS_9allocatorIcEEE18__get_long_pointerB8ue170006Ev, symObjAddr: 0x25C8, symBinAddr: 0x10000442C, symSize: 0x28 }
  - { offsetInCU: 0xD665, offset: 0xD665, size: 0x8, addend: 0x0, symName: __ZNSt3__112basic_stringIcNS_11char_traitsIcEENS_9allocatorIcEEE19__get_short_pointerB8ue170006Ev, symObjAddr: 0x25F0, symBinAddr: 0x100004454, symSize: 0x28 }
  - { offsetInCU: 0xD68B, offset: 0xD68B, size: 0x8, addend: 0x0, symName: __ZNKSt3__117__compressed_pairINS_12basic_stringIcNS_11char_traitsIcEENS_9allocatorIcEEE5__repES5_E5firstB8ue170006Ev, symObjAddr: 0x2618, symBinAddr: 0x10000447C, symSize: 0x24 }
  - { offsetInCU: 0xD6B1, offset: 0xD6B1, size: 0x8, addend: 0x0, symName: __ZNKSt3__122__compressed_pair_elemINS_12basic_stringIcNS_11char_traitsIcEENS_9allocatorIcEEE5__repELi0ELb0EE5__getB8ue170006Ev, symObjAddr: 0x263C, symBinAddr: 0x1000044A0, symSize: 0x14 }
  - { offsetInCU: 0xD6D7, offset: 0xD6D7, size: 0x8, addend: 0x0, symName: __ZNSt3__117__compressed_pairINS_12basic_stringIcNS_11char_traitsIcEENS_9allocatorIcEEE5__repES5_E5firstB8ue170006Ev, symObjAddr: 0x2650, symBinAddr: 0x1000044B4, symSize: 0x24 }
  - { offsetInCU: 0xD6FD, offset: 0xD6FD, size: 0x8, addend: 0x0, symName: __ZNSt3__122__compressed_pair_elemINS_12basic_stringIcNS_11char_traitsIcEENS_9allocatorIcEEE5__repELi0ELb0EE5__getB8ue170006Ev, symObjAddr: 0x2674, symBinAddr: 0x1000044D8, symSize: 0x14 }
  - { offsetInCU: 0xD723, offset: 0xD723, size: 0x8, addend: 0x0, symName: __ZNSt3__114pointer_traitsIPcE10pointer_toB8ue170006ERc, symObjAddr: 0x2688, symBinAddr: 0x1000044EC, symSize: 0x14 }
  - { offsetInCU: 0xD746, offset: 0xD746, size: 0x8, addend: 0x0, symName: __ZNSt3__119ostreambuf_iteratorIcNS_11char_traitsIcEEEC2B8ue170006ERNS_13basic_ostreamIcS2_EE, symObjAddr: 0x269C, symBinAddr: 0x100004500, symSize: 0x54 }
  - { offsetInCU: 0xD77E, offset: 0xD77E, size: 0x8, addend: 0x0, symName: __ZNKSt3__19basic_iosIcNS_11char_traitsIcEEE5rdbufB8ue170006Ev, symObjAddr: 0x26F0, symBinAddr: 0x100004554, symSize: 0x24 }
  - { offsetInCU: 0xD7A6, offset: 0xD7A6, size: 0x8, addend: 0x0, symName: __ZNKSt3__18ios_base5rdbufB8ue170006Ev, symObjAddr: 0x2714, symBinAddr: 0x100004578, symSize: 0x18 }
  - { offsetInCU: 0xD7CC, offset: 0xD7CC, size: 0x8, addend: 0x0, symName: __ZNSt3__111char_traitsIcE11eq_int_typeB8ue170006Eii, symObjAddr: 0x272C, symBinAddr: 0x100004590, symSize: 0x28 }
  - { offsetInCU: 0xD7FF, offset: 0xD7FF, size: 0x8, addend: 0x0, symName: __ZNSt3__111char_traitsIcE3eofB8ue170006Ev, symObjAddr: 0x2754, symBinAddr: 0x1000045B8, symSize: 0x8 }
  - { offsetInCU: 0xD813, offset: 0xD813, size: 0x8, addend: 0x0, symName: __ZNKSt3__19basic_iosIcNS_11char_traitsIcEEE5widenB8ue170006Ec, symObjAddr: 0x275C, symBinAddr: 0x1000045C0, symSize: 0x84 }
  - { offsetInCU: 0xD87C, offset: 0xD87C, size: 0x8, addend: 0x0, symName: __ZNKSt3__15ctypeIcE5widenB8ue170006Ec, symObjAddr: 0x280C, symBinAddr: 0x100004670, symSize: 0x38 }
  - { offsetInCU: 0xD8B1, offset: 0xD8B1, size: 0x8, addend: 0x0, symName: __ZNSt3__18ios_base8setstateB8ue170006Ej, symObjAddr: 0x2844, symBinAddr: 0x1000046A8, symSize: 0x34 }
  - { offsetInCU: 0xD8E8, offset: 0xD8E8, size: 0x8, addend: 0x0, symName: __ZNSt3__15queueIP8TreeNodeNS_5dequeIS2_NS_9allocatorIS2_EEEEEC2B8ue170006Ev, symObjAddr: 0x289C, symBinAddr: 0x100004700, symSize: 0x2C }
  - { offsetInCU: 0xD912, offset: 0xD912, size: 0x8, addend: 0x0, symName: __ZNSt3__15dequeIP8TreeNodeNS_9allocatorIS2_EEEC1B8ue170006Ev, symObjAddr: 0x28C8, symBinAddr: 0x10000472C, symSize: 0x2C }
  - { offsetInCU: 0xD93C, offset: 0xD93C, size: 0x8, addend: 0x0, symName: __ZNSt3__15dequeIP8TreeNodeNS_9allocatorIS2_EEEC2B8ue170006Ev, symObjAddr: 0x28F4, symBinAddr: 0x100004758, symSize: 0x5C }
  - { offsetInCU: 0xD966, offset: 0xD966, size: 0x8, addend: 0x0, symName: __ZNSt3__114__split_bufferIPP8TreeNodeNS_9allocatorIS3_EEEC1B8ue170006Ev, symObjAddr: 0x2950, symBinAddr: 0x1000047B4, symSize: 0x2C }
  - { offsetInCU: 0xD995, offset: 0xD995, size: 0x8, addend: 0x0, symName: __ZNSt3__117__compressed_pairImNS_9allocatorIP8TreeNodeEEEC1B8ue170006IiNS_18__default_init_tagEEEOT_OT0_, symObjAddr: 0x297C, symBinAddr: 0x1000047E0, symSize: 0x3C }
  - { offsetInCU: 0xD9ED, offset: 0xD9ED, size: 0x8, addend: 0x0, symName: __ZNSt3__114__split_bufferIPP8TreeNodeNS_9allocatorIS3_EEEC2B8ue170006Ev, symObjAddr: 0x29B8, symBinAddr: 0x10000481C, symSize: 0x50 }
  - { offsetInCU: 0xDA1C, offset: 0xDA1C, size: 0x8, addend: 0x0, symName: __ZNSt3__117__compressed_pairIPPP8TreeNodeNS_9allocatorIS3_EEEC1B8ue170006IDnNS_18__default_init_tagEEEOT_OT0_, symObjAddr: 0x2A08, symBinAddr: 0x10000486C, symSize: 0x3C }
  - { offsetInCU: 0xDA74, offset: 0xDA74, size: 0x8, addend: 0x0, symName: __ZNSt3__117__compressed_pairIPPP8TreeNodeNS_9allocatorIS3_EEEC2B8ue170006IDnNS_18__default_init_tagEEEOT_OT0_, symObjAddr: 0x2A44, symBinAddr: 0x1000048A8, symSize: 0x40 }
  - { offsetInCU: 0xDACC, offset: 0xDACC, size: 0x8, addend: 0x0, symName: __ZNSt3__122__compressed_pair_elemIPPP8TreeNodeLi0ELb0EEC2B8ue170006IDnvEEOT_, symObjAddr: 0x2A84, symBinAddr: 0x1000048E8, symSize: 0x1C }
  - { offsetInCU: 0xDB0E, offset: 0xDB0E, size: 0x8, addend: 0x0, symName: __ZNSt3__122__compressed_pair_elemINS_9allocatorIPP8TreeNodeEELi1ELb1EEC2B8ue170006ENS_18__default_init_tagE, symObjAddr: 0x2AA0, symBinAddr: 0x100004904, symSize: 0x2C }
  - { offsetInCU: 0xDB42, offset: 0xDB42, size: 0x8, addend: 0x0, symName: __ZNSt3__19allocatorIPP8TreeNodeEC2B8ue170006Ev, symObjAddr: 0x2ACC, symBinAddr: 0x100004930, symSize: 0x2C }
  - { offsetInCU: 0xDB6C, offset: 0xDB6C, size: 0x8, addend: 0x0, symName: __ZNSt3__116__non_trivial_ifILb1ENS_9allocatorIPP8TreeNodeEEEC2B8ue170006Ev, symObjAddr: 0x2AF8, symBinAddr: 0x10000495C, symSize: 0x14 }
  - { offsetInCU: 0xDB96, offset: 0xDB96, size: 0x8, addend: 0x0, symName: __ZNSt3__117__compressed_pairImNS_9allocatorIP8TreeNodeEEEC2B8ue170006IiNS_18__default_init_tagEEEOT_OT0_, symObjAddr: 0x2B0C, symBinAddr: 0x100004970, symSize: 0x40 }
  - { offsetInCU: 0xDBEE, offset: 0xDBEE, size: 0x8, addend: 0x0, symName: __ZNSt3__122__compressed_pair_elemImLi0ELb0EEC2B8ue170006IivEEOT_, symObjAddr: 0x2B4C, symBinAddr: 0x1000049B0, symSize: 0x24 }
  - { offsetInCU: 0xDC30, offset: 0xDC30, size: 0x8, addend: 0x0, symName: __ZNSt3__122__compressed_pair_elemINS_9allocatorIP8TreeNodeEELi1ELb1EEC2B8ue170006ENS_18__default_init_tagE, symObjAddr: 0x2B70, symBinAddr: 0x1000049D4, symSize: 0x2C }
  - { offsetInCU: 0xDC64, offset: 0xDC64, size: 0x8, addend: 0x0, symName: __ZNSt3__19allocatorIP8TreeNodeEC2B8ue170006Ev, symObjAddr: 0x2B9C, symBinAddr: 0x100004A00, symSize: 0x2C }
  - { offsetInCU: 0xDC8E, offset: 0xDC8E, size: 0x8, addend: 0x0, symName: __ZNSt3__116__non_trivial_ifILb1ENS_9allocatorIP8TreeNodeEEEC2B8ue170006Ev, symObjAddr: 0x2BC8, symBinAddr: 0x100004A2C, symSize: 0x14 }
  - { offsetInCU: 0xDCB8, offset: 0xDCB8, size: 0x8, addend: 0x0, symName: __ZNSt3__15dequeIP8TreeNodeNS_9allocatorIS2_EEE9push_backERKS2_, symObjAddr: 0x2BDC, symBinAddr: 0x100004A40, symSize: 0xAC }
  - { offsetInCU: 0xDCFE, offset: 0xDCFE, size: 0x8, addend: 0x0, symName: __ZNKSt3__15dequeIP8TreeNodeNS_9allocatorIS2_EEE12__back_spareB8ue170006Ev, symObjAddr: 0x2C88, symBinAddr: 0x100004AEC, symSize: 0x54 }
  - { offsetInCU: 0xDD24, offset: 0xDD24, size: 0x8, addend: 0x0, symName: __ZNSt3__15dequeIP8TreeNodeNS_9allocatorIS2_EEE19__add_back_capacityEv, symObjAddr: 0x2CDC, symBinAddr: 0x100004B40, symSize: 0x34C }
  - { offsetInCU: 0xDDD9, offset: 0xDDD9, size: 0x8, addend: 0x0, symName: __ZNKSt3__15dequeIP8TreeNodeNS_9allocatorIS2_EEE24__annotate_increase_backB8ue170006Em, symObjAddr: 0x3028, symBinAddr: 0x100004E8C, symSize: 0x7C }
  - { offsetInCU: 0xDE13, offset: 0xDE13, size: 0x8, addend: 0x0, symName: __ZNSt3__116allocator_traitsINS_9allocatorIP8TreeNodeEEE9constructB8ue170006IS3_JRKS3_EvvEEvRS4_PT_DpOT0_, symObjAddr: 0x30A4, symBinAddr: 0x100004F08, symSize: 0x30 }
  - { offsetInCU: 0xDE68, offset: 0xDE68, size: 0x8, addend: 0x0, symName: __ZNKSt3__15dequeIP8TreeNodeNS_9allocatorIS2_EEE10__capacityB8ue170006Ev, symObjAddr: 0x30D4, symBinAddr: 0x100004F38, symSize: 0x60 }
  - { offsetInCU: 0xDE8E, offset: 0xDE8E, size: 0x8, addend: 0x0, symName: __ZNKSt3__15dequeIP8TreeNodeNS_9allocatorIS2_EEE13__front_spareB8ue170006Ev, symObjAddr: 0x3134, symBinAddr: 0x100004F98, symSize: 0x18 }
  - { offsetInCU: 0xDEB4, offset: 0xDEB4, size: 0x8, addend: 0x0, symName: __ZNSt3__114__split_bufferIPP8TreeNodeNS_9allocatorIS3_EEE9push_backB8ue170006ERKS3_, symObjAddr: 0x314C, symBinAddr: 0x100004FB0, symSize: 0x260 }
  - { offsetInCU: 0xDF2C, offset: 0xDF2C, size: 0x8, addend: 0x0, symName: __ZNKSt3__114__split_bufferIPP8TreeNodeNS_9allocatorIS3_EEE12__back_spareB8ue170006Ev, symObjAddr: 0x33AC, symBinAddr: 0x100005210, symSize: 0x40 }
  - { offsetInCU: 0xDF52, offset: 0xDF52, size: 0x8, addend: 0x0, symName: __ZNSt3__114__split_bufferIPP8TreeNodeNS_9allocatorIS3_EEE9push_backEOS3_, symObjAddr: 0x33EC, symBinAddr: 0x100005250, symSize: 0x260 }
  - { offsetInCU: 0xDFCA, offset: 0xDFCA, size: 0x8, addend: 0x0, symName: __ZNSt3__116allocator_traitsINS_9allocatorIP8TreeNodeEEE8allocateB8ue170006ERS4_m, symObjAddr: 0x364C, symBinAddr: 0x1000054B0, symSize: 0x2C }
  - { offsetInCU: 0xDFFD, offset: 0xDFFD, size: 0x8, addend: 0x0, symName: __ZNSt3__114__split_bufferIPP8TreeNodeNS_9allocatorIS3_EEE10push_frontEOS3_, symObjAddr: 0x3678, symBinAddr: 0x1000054DC, symSize: 0x25C }
  - { offsetInCU: 0xE075, offset: 0xE075, size: 0x8, addend: 0x0, symName: __ZNSt3__114__split_bufferIPP8TreeNodeRNS_9allocatorIS3_EEEC1EmmS6_, symObjAddr: 0x3900, symBinAddr: 0x100005764, symSize: 0x44 }
  - { offsetInCU: 0xE0D0, offset: 0xE0D0, size: 0x8, addend: 0x0, symName: __ZNSt3__122__allocator_destructorINS_9allocatorIP8TreeNodeEEEC1B8ue170006ERS4_m, symObjAddr: 0x3944, symBinAddr: 0x1000057A8, symSize: 0x3C }
  - { offsetInCU: 0xE198, offset: 0xE198, size: 0x8, addend: 0x0, symName: __ZNSt3__110unique_ptrIPP8TreeNodeNS_22__allocator_destructorINS_9allocatorIS2_EEEEEC1B8ue170006ILb1EvEES3_NS_16__dependent_typeINS_27__unique_ptr_deleter_sfinaeIS7_EEXT_EE20__good_rval_ref_typeE, symObjAddr: 0x3980, symBinAddr: 0x1000057E4, symSize: 0x3C }
  - { offsetInCU: 0xE1E9, offset: 0xE1E9, size: 0x8, addend: 0x0, symName: __ZNSt3__114__split_bufferIPP8TreeNodeRNS_9allocatorIS3_EEE9push_backEOS3_, symObjAddr: 0x39BC, symBinAddr: 0x100005820, symSize: 0x260 }
  - { offsetInCU: 0xE261, offset: 0xE261, size: 0x8, addend: 0x0, symName: __ZNKSt3__110unique_ptrIPP8TreeNodeNS_22__allocator_destructorINS_9allocatorIS2_EEEEE3getB8ue170006Ev, symObjAddr: 0x3C1C, symBinAddr: 0x100005A80, symSize: 0x28 }
  - { offsetInCU: 0xE287, offset: 0xE287, size: 0x8, addend: 0x0, symName: __ZNSt3__110unique_ptrIPP8TreeNodeNS_22__allocator_destructorINS_9allocatorIS2_EEEEE7releaseB8ue170006Ev, symObjAddr: 0x3C44, symBinAddr: 0x100005AA8, symSize: 0x44 }
  - { offsetInCU: 0xE2BC, offset: 0xE2BC, size: 0x8, addend: 0x0, symName: __ZNSt3__114__split_bufferIPP8TreeNodeRNS_9allocatorIS3_EEE10push_frontERKS3_, symObjAddr: 0x3C88, symBinAddr: 0x100005AEC, symSize: 0x25C }
  - { offsetInCU: 0xE334, offset: 0xE334, size: 0x8, addend: 0x0, symName: __ZNSt3__114__split_bufferIPP8TreeNodeNS_9allocatorIS3_EEE9__end_capB8ue170006Ev, symObjAddr: 0x3F20, symBinAddr: 0x100005D84, symSize: 0x28 }
  - { offsetInCU: 0xE35A, offset: 0xE35A, size: 0x8, addend: 0x0, symName: __ZNSt3__114__split_bufferIPP8TreeNodeRNS_9allocatorIS3_EEE9__end_capB8ue170006Ev, symObjAddr: 0x3F48, symBinAddr: 0x100005DAC, symSize: 0x28 }
  - { offsetInCU: 0xE380, offset: 0xE380, size: 0x8, addend: 0x0, symName: __ZNSt3__110unique_ptrIPP8TreeNodeNS_22__allocator_destructorINS_9allocatorIS2_EEEEED1B8ue170006Ev, symObjAddr: 0x3F70, symBinAddr: 0x100005DD4, symSize: 0x2C }
  - { offsetInCU: 0xE3AA, offset: 0xE3AA, size: 0x8, addend: 0x0, symName: __ZNSt3__114__split_bufferIPP8TreeNodeRNS_9allocatorIS3_EEED1Ev, symObjAddr: 0x3F9C, symBinAddr: 0x100005E00, symSize: 0x2C }
  - { offsetInCU: 0xE3D6, offset: 0xE3D6, size: 0x8, addend: 0x0, symName: __ZNSt3__114__split_bufferIPP8TreeNodeRNS_9allocatorIS3_EEE18__construct_at_endINS_13move_iteratorIPS3_EEEENS_9enable_ifIXsr31__has_forward_iterator_categoryIT_EE5valueEvE4typeESD_SD_, symObjAddr: 0x4008, symBinAddr: 0x100005E6C, symSize: 0x60 }
  - { offsetInCU: 0xE423, offset: 0xE423, size: 0x8, addend: 0x0, symName: __ZNSt3__113move_iteratorIPPP8TreeNodeEC1B8ue170006ES4_, symObjAddr: 0x4068, symBinAddr: 0x100005ECC, symSize: 0x34 }
  - { offsetInCU: 0xE45B, offset: 0xE45B, size: 0x8, addend: 0x0, symName: __ZNSt3__116allocator_traitsINS_9allocatorIPP8TreeNodeEEE9constructB8ue170006IS4_JRKS4_EvvEEvRS5_PT_DpOT0_, symObjAddr: 0x409C, symBinAddr: 0x100005F00, symSize: 0x30 }
  - { offsetInCU: 0xE4D3, offset: 0xE4D3, size: 0x8, addend: 0x0, symName: __ZNKSt3__114__move_trivialclB8ue170006IPP8TreeNodeS4_Li0EEENS_4pairIPT_PT0_EES7_S7_S9_, symObjAddr: 0x4244, symBinAddr: 0x1000060A8, symSize: 0x48 }
  - { offsetInCU: 0xE53B, offset: 0xE53B, size: 0x8, addend: 0x0, symName: __ZNSt3__119__unwrap_range_implIPPP8TreeNodeS4_E8__unwrapB8ue170006ES4_S4_, symObjAddr: 0x4350, symBinAddr: 0x1000061B4, symSize: 0x58 }
  - { offsetInCU: 0xE571, offset: 0xE571, size: 0x8, addend: 0x0, symName: __ZNSt3__14pairIPPP8TreeNodeS4_EC1B8ue170006IS4_S4_LPv0EEEOT_OT0_, symObjAddr: 0x43A8, symBinAddr: 0x10000620C, symSize: 0x3C }
  - { offsetInCU: 0xE5CF, offset: 0xE5CF, size: 0x8, addend: 0x0, symName: __ZNSt3__14pairIPPP8TreeNodeS4_EC2B8ue170006IS4_S4_LPv0EEEOT_OT0_, symObjAddr: 0x43E4, symBinAddr: 0x100006248, symSize: 0x34 }
  - { offsetInCU: 0xE62D, offset: 0xE62D, size: 0x8, addend: 0x0, symName: __ZNSt3__14pairIPPP8TreeNodeS4_EC1B8ue170006IRS4_S4_LPv0EEEOT_OT0_, symObjAddr: 0x4534, symBinAddr: 0x100006398, symSize: 0x3C }
  - { offsetInCU: 0xE68B, offset: 0xE68B, size: 0x8, addend: 0x0, symName: __ZNSt3__14pairIPPP8TreeNodeS4_EC2B8ue170006IRS4_S4_LPv0EEEOT_OT0_, symObjAddr: 0x4570, symBinAddr: 0x1000063D4, symSize: 0x34 }
  - { offsetInCU: 0xE6E9, offset: 0xE6E9, size: 0x8, addend: 0x0, symName: __ZNSt3__118__unwrap_iter_implIPPP8TreeNodeLb1EE8__unwrapB8ue170006ES4_, symObjAddr: 0x45A4, symBinAddr: 0x100006408, symSize: 0x24 }
  - { offsetInCU: 0xE70C, offset: 0xE70C, size: 0x8, addend: 0x0, symName: __ZNSt3__119__unwrap_range_implIPPP8TreeNodeS4_E8__rewrapB8ue170006ES4_S4_, symObjAddr: 0x45C8, symBinAddr: 0x10000642C, symSize: 0x2C }
  - { offsetInCU: 0xE73D, offset: 0xE73D, size: 0x8, addend: 0x0, symName: __ZNSt3__118__unwrap_iter_implIPPP8TreeNodeLb1EE8__rewrapB8ue170006ES4_S4_, symObjAddr: 0x45F4, symBinAddr: 0x100006458, symSize: 0x50 }
  - { offsetInCU: 0xE76E, offset: 0xE76E, size: 0x8, addend: 0x0, symName: __ZNSt3__114__split_bufferIPP8TreeNodeRNS_9allocatorIS3_EEE28__construct_at_end_with_sizeINS_13move_iteratorIPS3_EEEEvT_m, symObjAddr: 0x4644, symBinAddr: 0x1000064A8, symSize: 0xDC }
  - { offsetInCU: 0xE7D4, offset: 0xE7D4, size: 0x8, addend: 0x0, symName: __ZNSt3__114__split_bufferIPP8TreeNodeRNS_9allocatorIS3_EEE21_ConstructTransactionC1B8ue170006EPPS3_m, symObjAddr: 0x475C, symBinAddr: 0x1000065C0, symSize: 0x3C }
  - { offsetInCU: 0xE81F, offset: 0xE81F, size: 0x8, addend: 0x0, symName: __ZNSt3__116allocator_traitsINS_9allocatorIPP8TreeNodeEEE9constructB8ue170006IS4_JS4_EvvEEvRS5_PT_DpOT0_, symObjAddr: 0x4798, symBinAddr: 0x1000065FC, symSize: 0x30 }
  - { offsetInCU: 0xE874, offset: 0xE874, size: 0x8, addend: 0x0, symName: __ZNSt3__114__split_bufferIPP8TreeNodeRNS_9allocatorIS3_EEE7__allocB8ue170006Ev, symObjAddr: 0x47C8, symBinAddr: 0x10000662C, symSize: 0x28 }
  - { offsetInCU: 0xE89A, offset: 0xE89A, size: 0x8, addend: 0x0, symName: __ZNKSt3__113move_iteratorIPPP8TreeNodeEdeB8ue170006Ev, symObjAddr: 0x47F0, symBinAddr: 0x100006654, symSize: 0x2C }
  - { offsetInCU: 0xE8C0, offset: 0xE8C0, size: 0x8, addend: 0x0, symName: __ZNSt3__113move_iteratorIPPP8TreeNodeEppB8ue170006Ev, symObjAddr: 0x481C, symBinAddr: 0x100006680, symSize: 0x20 }
  - { offsetInCU: 0xE8E6, offset: 0xE8E6, size: 0x8, addend: 0x0, symName: __ZNSt3__114__split_bufferIPP8TreeNodeRNS_9allocatorIS3_EEE21_ConstructTransactionD1B8ue170006Ev, symObjAddr: 0x483C, symBinAddr: 0x1000066A0, symSize: 0x2C }
  - { offsetInCU: 0xE910, offset: 0xE910, size: 0x8, addend: 0x0, symName: __ZNSt3__114__split_bufferIPP8TreeNodeRNS_9allocatorIS3_EEE21_ConstructTransactionC2B8ue170006EPPS3_m, symObjAddr: 0x4868, symBinAddr: 0x1000066CC, symSize: 0x44 }
  - { offsetInCU: 0xE956, offset: 0xE956, size: 0x8, addend: 0x0, symName: __ZNSt3__117__compressed_pairIPPP8TreeNodeRNS_9allocatorIS3_EEE6secondB8ue170006Ev, symObjAddr: 0x48D8, symBinAddr: 0x10000673C, symSize: 0x28 }
  - { offsetInCU: 0xE97C, offset: 0xE97C, size: 0x8, addend: 0x0, symName: __ZNSt3__122__compressed_pair_elemIRNS_9allocatorIPP8TreeNodeEELi1ELb0EE5__getB8ue170006Ev, symObjAddr: 0x4900, symBinAddr: 0x100006764, symSize: 0x18 }
  - { offsetInCU: 0xE9A7, offset: 0xE9A7, size: 0x8, addend: 0x0, symName: __ZNKSt3__16ranges11__iter_move4__fnclB8ue170006IRKPPP8TreeNodeEEDTclsr3stdE4movedeclsr3stdE7forwardIT_Efp_EEEOSA_, symObjAddr: 0x4918, symBinAddr: 0x10000677C, symSize: 0x1C }
  - { offsetInCU: 0xE9E4, offset: 0xE9E4, size: 0x8, addend: 0x0, symName: __ZNSt3__114__split_bufferIPP8TreeNodeRNS_9allocatorIS3_EEE21_ConstructTransactionD2B8ue170006Ev, symObjAddr: 0x4934, symBinAddr: 0x100006798, symSize: 0x20 }
  - { offsetInCU: 0xEA0E, offset: 0xEA0E, size: 0x8, addend: 0x0, symName: __ZNKRSt3__113move_iteratorIPPP8TreeNodeE4baseB8ue170006Ev, symObjAddr: 0x49D0, symBinAddr: 0x100006834, symSize: 0x14 }
  - { offsetInCU: 0xEA34, offset: 0xEA34, size: 0x8, addend: 0x0, symName: __ZNSt3__113move_iteratorIPPP8TreeNodeEC2B8ue170006ES4_, symObjAddr: 0x49E4, symBinAddr: 0x100006848, symSize: 0x20 }
  - { offsetInCU: 0xEA6C, offset: 0xEA6C, size: 0x8, addend: 0x0, symName: __ZNSt3__19allocatorIP8TreeNodeE8allocateB8ue170006Em, symObjAddr: 0x4A30, symBinAddr: 0x100006894, symSize: 0x58 }
  - { offsetInCU: 0xEAAA, offset: 0xEAAA, size: 0x8, addend: 0x0, symName: __ZNSt3__116allocator_traitsINS_9allocatorIP8TreeNodeEEE8max_sizeB8ue170006IS4_vvEEmRKS4_, symObjAddr: 0x4A88, symBinAddr: 0x1000068EC, symSize: 0x28 }
  - { offsetInCU: 0xEAD6, offset: 0xEAD6, size: 0x8, addend: 0x0, symName: __ZNSt3__114numeric_limitsImE3maxB8ue170006Ev, symObjAddr: 0x4B44, symBinAddr: 0x1000069A8, symSize: 0x14 }
  - { offsetInCU: 0xEAEA, offset: 0xEAEA, size: 0x8, addend: 0x0, symName: __ZNSt3__123__libcpp_numeric_limitsImLb1EE3maxB8ue170006Ev, symObjAddr: 0x4B58, symBinAddr: 0x1000069BC, symSize: 0x8 }
  - { offsetInCU: 0xEB08, offset: 0xEB08, size: 0x8, addend: 0x0, symName: __ZNKSt3__123__move_backward_trivialclB8ue170006IPP8TreeNodeS4_Li0EEENS_4pairIPT_PT0_EES7_S7_S9_, symObjAddr: 0x4D2C, symBinAddr: 0x100006B90, symSize: 0x48 }
  - { offsetInCU: 0xEB70, offset: 0xEB70, size: 0x8, addend: 0x0, symName: __ZNSt3__14pairIPPP8TreeNodeS4_EC1B8ue170006IRS4_S7_LPv0EEEOT_OT0_, symObjAddr: 0x4E3C, symBinAddr: 0x100006CA0, symSize: 0x3C }
  - { offsetInCU: 0xEBCE, offset: 0xEBCE, size: 0x8, addend: 0x0, symName: __ZNSt3__14pairIPPP8TreeNodeS4_EC2B8ue170006IRS4_S7_LPv0EEEOT_OT0_, symObjAddr: 0x4E78, symBinAddr: 0x100006CDC, symSize: 0x34 }
  - { offsetInCU: 0xEC36, offset: 0xEC36, size: 0x8, addend: 0x0, symName: __ZNKSt3__16__lessIvvEclB8ue170006ImmEEbRKT_RKT0_, symObjAddr: 0x4F00, symBinAddr: 0x100006D64, symSize: 0x34 }
  - { offsetInCU: 0xEC8A, offset: 0xEC8A, size: 0x8, addend: 0x0, symName: __ZNSt3__114__split_bufferIPP8TreeNodeRNS_9allocatorIS3_EEEC2EmmS6_, symObjAddr: 0x4F34, symBinAddr: 0x100006D98, symSize: 0xD4 }
  - { offsetInCU: 0xECFD, offset: 0xECFD, size: 0x8, addend: 0x0, symName: __ZNSt3__117__compressed_pairIPPP8TreeNodeRNS_9allocatorIS3_EEEC1B8ue170006IDnS7_EEOT_OT0_, symObjAddr: 0x5008, symBinAddr: 0x100006E6C, symSize: 0x3C }
  - { offsetInCU: 0xED55, offset: 0xED55, size: 0x8, addend: 0x0, symName: __ZNSt3__117__compressed_pairIPPP8TreeNodeRNS_9allocatorIS3_EEEC2B8ue170006IDnS7_EEOT_OT0_, symObjAddr: 0x5084, symBinAddr: 0x100006EE8, symSize: 0x48 }
  - { offsetInCU: 0xEDAD, offset: 0xEDAD, size: 0x8, addend: 0x0, symName: __ZNSt3__122__compressed_pair_elemIRNS_9allocatorIPP8TreeNodeEELi1ELb0EEC2B8ue170006IS6_vEEOT_, symObjAddr: 0x50CC, symBinAddr: 0x100006F30, symSize: 0x20 }
  - { offsetInCU: 0xEDEF, offset: 0xEDEF, size: 0x8, addend: 0x0, symName: __ZNSt3__19allocatorIPP8TreeNodeE8allocateB8ue170006Em, symObjAddr: 0x50EC, symBinAddr: 0x100006F50, symSize: 0x58 }
  - { offsetInCU: 0xEE2D, offset: 0xEE2D, size: 0x8, addend: 0x0, symName: __ZNSt3__116allocator_traitsINS_9allocatorIPP8TreeNodeEEE8max_sizeB8ue170006IS5_vvEEmRKS5_, symObjAddr: 0x5144, symBinAddr: 0x100006FA8, symSize: 0x28 }
  - { offsetInCU: 0xEE59, offset: 0xEE59, size: 0x8, addend: 0x0, symName: __ZNSt3__122__allocator_destructorINS_9allocatorIP8TreeNodeEEEC2B8ue170006ERS4_m, symObjAddr: 0x516C, symBinAddr: 0x100006FD0, symSize: 0x2C }
  - { offsetInCU: 0xEE9F, offset: 0xEE9F, size: 0x8, addend: 0x0, symName: __ZNSt3__110unique_ptrIPP8TreeNodeNS_22__allocator_destructorINS_9allocatorIS2_EEEEEC2B8ue170006ILb1EvEES3_NS_16__dependent_typeINS_27__unique_ptr_deleter_sfinaeIS7_EEXT_EE20__good_rval_ref_typeE, symObjAddr: 0x5198, symBinAddr: 0x100006FFC, symSize: 0x48 }
  - { offsetInCU: 0xEEF0, offset: 0xEEF0, size: 0x8, addend: 0x0, symName: __ZNSt3__117__compressed_pairIPP8TreeNodeNS_22__allocator_destructorINS_9allocatorIS2_EEEEEC1B8ue170006IRS3_S7_EEOT_OT0_, symObjAddr: 0x51E0, symBinAddr: 0x100007044, symSize: 0x3C }
  - { offsetInCU: 0xEF48, offset: 0xEF48, size: 0x8, addend: 0x0, symName: __ZNSt3__117__compressed_pairIPP8TreeNodeNS_22__allocator_destructorINS_9allocatorIS2_EEEEEC2B8ue170006IRS3_S7_EEOT_OT0_, symObjAddr: 0x521C, symBinAddr: 0x100007080, symSize: 0x48 }
  - { offsetInCU: 0xEFA0, offset: 0xEFA0, size: 0x8, addend: 0x0, symName: __ZNSt3__122__compressed_pair_elemIPP8TreeNodeLi0ELb0EEC2B8ue170006IRS3_vEEOT_, symObjAddr: 0x5264, symBinAddr: 0x1000070C8, symSize: 0x24 }
  - { offsetInCU: 0xEFE2, offset: 0xEFE2, size: 0x8, addend: 0x0, symName: __ZNSt3__122__compressed_pair_elemINS_22__allocator_destructorINS_9allocatorIP8TreeNodeEEEELi1ELb0EEC2B8ue170006IS6_vEEOT_, symObjAddr: 0x5288, symBinAddr: 0x1000070EC, symSize: 0x24 }
  - { offsetInCU: 0xF024, offset: 0xF024, size: 0x8, addend: 0x0, symName: __ZNKSt3__117__compressed_pairIPP8TreeNodeNS_22__allocator_destructorINS_9allocatorIS2_EEEEE5firstB8ue170006Ev, symObjAddr: 0x52AC, symBinAddr: 0x100007110, symSize: 0x24 }
  - { offsetInCU: 0xF04A, offset: 0xF04A, size: 0x8, addend: 0x0, symName: __ZNKSt3__122__compressed_pair_elemIPP8TreeNodeLi0ELb0EE5__getB8ue170006Ev, symObjAddr: 0x52D0, symBinAddr: 0x100007134, symSize: 0x14 }
  - { offsetInCU: 0xF070, offset: 0xF070, size: 0x8, addend: 0x0, symName: __ZNSt3__117__compressed_pairIPP8TreeNodeNS_22__allocator_destructorINS_9allocatorIS2_EEEEE5firstB8ue170006Ev, symObjAddr: 0x52E4, symBinAddr: 0x100007148, symSize: 0x24 }
  - { offsetInCU: 0xF096, offset: 0xF096, size: 0x8, addend: 0x0, symName: __ZNSt3__122__compressed_pair_elemIPP8TreeNodeLi0ELb0EE5__getB8ue170006Ev, symObjAddr: 0x5308, symBinAddr: 0x10000716C, symSize: 0x14 }
  - { offsetInCU: 0xF0BC, offset: 0xF0BC, size: 0x8, addend: 0x0, symName: __ZNSt3__117__compressed_pairIPPP8TreeNodeNS_9allocatorIS3_EEE5firstB8ue170006Ev, symObjAddr: 0x531C, symBinAddr: 0x100007180, symSize: 0x24 }
  - { offsetInCU: 0xF0E2, offset: 0xF0E2, size: 0x8, addend: 0x0, symName: __ZNSt3__122__compressed_pair_elemIPPP8TreeNodeLi0ELb0EE5__getB8ue170006Ev, symObjAddr: 0x5340, symBinAddr: 0x1000071A4, symSize: 0x14 }
  - { offsetInCU: 0xF108, offset: 0xF108, size: 0x8, addend: 0x0, symName: __ZNSt3__117__compressed_pairIPPP8TreeNodeRNS_9allocatorIS3_EEE5firstB8ue170006Ev, symObjAddr: 0x5354, symBinAddr: 0x1000071B8, symSize: 0x24 }
  - { offsetInCU: 0xF12E, offset: 0xF12E, size: 0x8, addend: 0x0, symName: __ZNSt3__110unique_ptrIPP8TreeNodeNS_22__allocator_destructorINS_9allocatorIS2_EEEEED2B8ue170006Ev, symObjAddr: 0x5378, symBinAddr: 0x1000071DC, symSize: 0x30 }
  - { offsetInCU: 0xF158, offset: 0xF158, size: 0x8, addend: 0x0, symName: __ZNSt3__110unique_ptrIPP8TreeNodeNS_22__allocator_destructorINS_9allocatorIS2_EEEEE5resetB8ue170006ES3_, symObjAddr: 0x53A8, symBinAddr: 0x10000720C, symSize: 0x78 }
  - { offsetInCU: 0xF19C, offset: 0xF19C, size: 0x8, addend: 0x0, symName: __ZNSt3__117__compressed_pairIPP8TreeNodeNS_22__allocator_destructorINS_9allocatorIS2_EEEEE6secondB8ue170006Ev, symObjAddr: 0x5420, symBinAddr: 0x100007284, symSize: 0x28 }
  - { offsetInCU: 0xF1C2, offset: 0xF1C2, size: 0x8, addend: 0x0, symName: __ZNSt3__122__allocator_destructorINS_9allocatorIP8TreeNodeEEEclB8ue170006EPS3_, symObjAddr: 0x5448, symBinAddr: 0x1000072AC, symSize: 0x34 }
  - { offsetInCU: 0xF1F6, offset: 0xF1F6, size: 0x8, addend: 0x0, symName: __ZNSt3__122__compressed_pair_elemINS_22__allocator_destructorINS_9allocatorIP8TreeNodeEEEELi1ELb0EE5__getB8ue170006Ev, symObjAddr: 0x547C, symBinAddr: 0x1000072E0, symSize: 0x14 }
  - { offsetInCU: 0xF21C, offset: 0xF21C, size: 0x8, addend: 0x0, symName: __ZNSt3__114__split_bufferIPP8TreeNodeRNS_9allocatorIS3_EEED2Ev, symObjAddr: 0x5490, symBinAddr: 0x1000072F4, symSize: 0x8C }
  - { offsetInCU: 0xF248, offset: 0xF248, size: 0x8, addend: 0x0, symName: __ZNSt3__114__split_bufferIPP8TreeNodeRNS_9allocatorIS3_EEE5clearB8ue170006Ev, symObjAddr: 0x551C, symBinAddr: 0x100007380, symSize: 0x28 }
  - { offsetInCU: 0xF26E, offset: 0xF26E, size: 0x8, addend: 0x0, symName: __ZNKSt3__114__split_bufferIPP8TreeNodeRNS_9allocatorIS3_EEE8capacityB8ue170006Ev, symObjAddr: 0x5544, symBinAddr: 0x1000073A8, symSize: 0x40 }
  - { offsetInCU: 0xF294, offset: 0xF294, size: 0x8, addend: 0x0, symName: __ZNSt3__114__split_bufferIPP8TreeNodeRNS_9allocatorIS3_EEE17__destruct_at_endB8ue170006EPS3_, symObjAddr: 0x5584, symBinAddr: 0x1000073E8, symSize: 0x2C }
  - { offsetInCU: 0xF2C8, offset: 0xF2C8, size: 0x8, addend: 0x0, symName: __ZNSt3__114__split_bufferIPP8TreeNodeRNS_9allocatorIS3_EEE17__destruct_at_endB8ue170006EPS3_NS_17integral_constantIbLb0EEE, symObjAddr: 0x55B0, symBinAddr: 0x100007414, symSize: 0x80 }
  - { offsetInCU: 0xF308, offset: 0xF308, size: 0x8, addend: 0x0, symName: __ZNKSt3__114__split_bufferIPP8TreeNodeRNS_9allocatorIS3_EEE9__end_capB8ue170006Ev, symObjAddr: 0x5630, symBinAddr: 0x100007494, symSize: 0x28 }
  - { offsetInCU: 0xF32E, offset: 0xF32E, size: 0x8, addend: 0x0, symName: __ZNKSt3__117__compressed_pairIPPP8TreeNodeRNS_9allocatorIS3_EEE5firstB8ue170006Ev, symObjAddr: 0x5658, symBinAddr: 0x1000074BC, symSize: 0x24 }
  - { offsetInCU: 0xF354, offset: 0xF354, size: 0x8, addend: 0x0, symName: __ZNSt3__15dequeIP8TreeNodeNS_9allocatorIS2_EEE5frontEv, symObjAddr: 0x56A8, symBinAddr: 0x10000750C, symSize: 0x50 }
  - { offsetInCU: 0xF37C, offset: 0xF37C, size: 0x8, addend: 0x0, symName: __ZNSt3__15dequeIP8TreeNodeNS_9allocatorIS2_EEE9pop_frontEv, symObjAddr: 0x56F8, symBinAddr: 0x10000755C, symSize: 0xD4 }
  - { offsetInCU: 0xF3D1, offset: 0xF3D1, size: 0x8, addend: 0x0, symName: __ZNKSt3__15dequeIP8TreeNodeNS_9allocatorIS2_EEE23__annotate_shrink_frontB8ue170006Emm, symObjAddr: 0x57CC, symBinAddr: 0x100007630, symSize: 0x70 }
  - { offsetInCU: 0xF415, offset: 0xF415, size: 0x8, addend: 0x0, symName: __ZNSt3__15dequeIP8TreeNodeNS_9allocatorIS2_EEE26__maybe_remove_front_spareB8ue170006Eb, symObjAddr: 0x583C, symBinAddr: 0x1000076A0, symSize: 0xEC }
  - { offsetInCU: 0xF44A, offset: 0xF44A, size: 0x8, addend: 0x0, symName: __ZNKSt3__15dequeIP8TreeNodeNS_9allocatorIS2_EEE20__front_spare_blocksB8ue170006Ev, symObjAddr: 0x5928, symBinAddr: 0x10000778C, symSize: 0x2C }
...
