---
triple:          'arm64-apple-darwin'
binary-path:     '/Users/arcademo/Code/LeetCode/build/GroupAnagrams'
relocations:
  - { offsetInCU: 0x5C, offset: 0x5C, size: 0x8, addend: 0x0, symName: __ZNSt3__119piecewise_constructE, symObjAddr: 0xAE0D, symBinAddr: 0x10000B815, symSize: 0x0 }
  - { offsetInCU: 0x7E1C, offset: 0x7E1C, size: 0x8, addend: 0x0, symName: __ZNSt3__17advanceB8ue170006IPNS_12basic_stringIcNS_11char_traitsIcEENS_9allocatorIcEEEEllvEEvRT_T0_, symObjAddr: 0x646C, symBinAddr: 0x100006BBC, symSize: 0x38 }
  - { offsetInCU: 0x809C, offset: 0x809C, size: 0x8, addend: 0x0, symName: __ZNSt3__17advanceB8ue170006INS_16reverse_iteratorIPNS_12basic_stringIcNS_11char_traitsIcEENS_9allocatorIcEEEEEEllvEEvRT_T0_, symObjAddr: 0x68B0, symBinAddr: 0x100007000, symSize: 0x38 }
  - { offsetInCU: 0x9DB4, offset: 0x9DB4, size: 0x8, addend: 0x0, symName: __ZNSt3__17advanceB8ue170006IPNS_6vectorINS_12basic_stringIcNS_11char_traitsIcEENS_9allocatorIcEEEENS5_IS7_EEEEllvEEvRT_T0_, symObjAddr: 0x8CF4, symBinAddr: 0x100009444, symSize: 0x38 }
  - { offsetInCU: 0xA034, offset: 0xA034, size: 0x8, addend: 0x0, symName: __ZNSt3__17advanceB8ue170006INS_16reverse_iteratorIPNS_6vectorINS_12basic_stringIcNS_11char_traitsIcEENS_9allocatorIcEEEENS6_IS8_EEEEEEllvEEvRT_T0_, symObjAddr: 0x9124, symBinAddr: 0x100009874, symSize: 0x38 }
  - { offsetInCU: 0xA09F, offset: 0xA09F, size: 0x8, addend: 0x0, symName: __ZNSt3__124__put_character_sequenceB8ue170006IcNS_11char_traitsIcEEEERNS_13basic_ostreamIT_T0_EES7_PKS4_m, symObjAddr: 0xA124, symBinAddr: 0x10000A874, symSize: 0x1EC }
  - { offsetInCU: 0xC273, offset: 0xC273, size: 0x8, addend: 0x0, symName: __ZNSt3__1neB8ue170006IPNS_6vectorINS_12basic_stringIcNS_11char_traitsIcEENS_9allocatorIcEEEENS5_IS7_EEEEEEbRKNS_11__wrap_iterIT_EESF_, symObjAddr: 0x440, symBinAddr: 0x100000B90, symSize: 0x34 }
  - { offsetInCU: 0xC2B6, offset: 0xC2B6, size: 0x8, addend: 0x0, symName: __ZNSt3__1lsB8ue170006INS_11char_traitsIcEEEERNS_13basic_ostreamIcT_EES6_PKc, symObjAddr: 0x48C, symBinAddr: 0x100000BDC, symSize: 0x48 }
  - { offsetInCU: 0xC2FC, offset: 0xC2FC, size: 0x8, addend: 0x0, symName: __ZNSt3__1neB8ue170006IPKNS_12basic_stringIcNS_11char_traitsIcEENS_9allocatorIcEEEEEEbRKNS_11__wrap_iterIT_EESD_, symObjAddr: 0x534, symBinAddr: 0x100000C84, symSize: 0x34 }
  - { offsetInCU: 0xC33F, offset: 0xC33F, size: 0x8, addend: 0x0, symName: __ZNSt3__1lsB8ue170006IcNS_11char_traitsIcEENS_9allocatorIcEEEERNS_13basic_ostreamIT_T0_EES9_RKNS_12basic_stringIS6_S7_T1_EE, symObjAddr: 0x580, symBinAddr: 0x100000CD0, symSize: 0x4C }
  - { offsetInCU: 0xC397, offset: 0xC397, size: 0x8, addend: 0x0, symName: __ZNSt3__14endlB8ue170006IcNS_11char_traitsIcEEEERNS_13basic_ostreamIT_T0_EES7_, symObjAddr: 0x638, symBinAddr: 0x100000D88, symSize: 0x58 }
  - { offsetInCU: 0xCE0C, offset: 0xCE0C, size: 0x8, addend: 0x0, symName: __ZNSt3__1neB8ue170006IPNS_12basic_stringIcNS_11char_traitsIcEENS_9allocatorIcEEEEEEbRKNS_11__wrap_iterIT_EESC_, symObjAddr: 0xD34, symBinAddr: 0x100001484, symSize: 0x34 }
  - { offsetInCU: 0xCE4F, offset: 0xCE4F, size: 0x8, addend: 0x0, symName: __ZNSt3__14sortB8ue170006INS_11__wrap_iterIPcEEEEvT_S4_, symObjAddr: 0xD80, symBinAddr: 0x1000014D0, symSize: 0x3C }
  - { offsetInCU: 0xCE91, offset: 0xCE91, size: 0x8, addend: 0x0, symName: __ZNSt3__1eqB8ue170006ERKNS_19__hash_map_iteratorINS_15__hash_iteratorIPNS_11__hash_nodeINS_17__hash_value_typeINS_12basic_stringIcNS_11char_traitsIcEENS_9allocatorIcEEEENS_6vectorIS9_NS7_IS9_EEEEEEPvEEEEEESK_, symObjAddr: 0x1004, symBinAddr: 0x100001754, symSize: 0x30 }
  - { offsetInCU: 0xCECE, offset: 0xCECE, size: 0x8, addend: 0x0, symName: __ZNSt3__1eqB8ue170006IPNS_12basic_stringIcNS_11char_traitsIcEENS_9allocatorIcEEEEEEbRKNS_11__wrap_iterIT_EESC_, symObjAddr: 0x17FC, symBinAddr: 0x100001F4C, symSize: 0x48 }
  - { offsetInCU: 0xCF11, offset: 0xCF11, size: 0x8, addend: 0x0, symName: __ZNSt3__14sortB8ue170006INS_11__wrap_iterIPcEENS_6__lessIvvEEEEvT_S6_T0_, symObjAddr: 0x185C, symBinAddr: 0x100001FAC, symSize: 0x40 }
  - { offsetInCU: 0xCF6B, offset: 0xCF6B, size: 0x8, addend: 0x0, symName: __ZNSt3__111__sort_implB8ue170006INS_17_ClassicAlgPolicyENS_11__wrap_iterIPcEENS_6__lessIvvEEEEvT0_S7_RT1_, symObjAddr: 0x189C, symBinAddr: 0x100001FEC, symSize: 0xA8 }
  - { offsetInCU: 0xCFCE, offset: 0xCFCE, size: 0x8, addend: 0x0, symName: __ZNSt3__123__debug_randomize_rangeB8ue170006INS_17_ClassicAlgPolicyENS_11__wrap_iterIPcEES4_EEvT0_T1_, symObjAddr: 0x1944, symBinAddr: 0x100002094, symSize: 0x14 }
  - { offsetInCU: 0xD01F, offset: 0xD01F, size: 0x8, addend: 0x0, symName: __ZNSt3__115__sort_dispatchB8ue170006INS_17_ClassicAlgPolicyEcLi0EEEvPT0_S3_RNS_6__lessIvvEE, symObjAddr: 0x1958, symBinAddr: 0x1000020A8, symSize: 0x34 }
  - { offsetInCU: 0xD08A, offset: 0xD08A, size: 0x8, addend: 0x0, symName: __ZNSt3__113__unwrap_iterB8ue170006INS_11__wrap_iterIPcEENS_18__unwrap_iter_implIS3_Lb1EEELi0EEEDTclsrT0_8__unwrapclsr3stdE7declvalIT_EEEES7_, symObjAddr: 0x198C, symBinAddr: 0x1000020DC, symSize: 0x2C }
  - { offsetInCU: 0xD0CE, offset: 0xD0CE, size: 0x8, addend: 0x0, symName: __ZNSt3__135__check_strict_weak_ordering_sortedB8ue170006IPcNS_6__lessIvvEEEEvT_S4_RT0_, symObjAddr: 0x19B8, symBinAddr: 0x100002108, symSize: 0x18 }
  - { offsetInCU: 0xD177, offset: 0xD177, size: 0x8, addend: 0x0, symName: __ZNSt3__112__to_addressB8ue170006INS_11__wrap_iterIPcEEvEEu7__decayIDTclsr19__to_address_helperIT_EE6__callclsr3stdE7declvalIRKS4_EEEEES6_, symObjAddr: 0x19F8, symBinAddr: 0x100002148, symSize: 0x24 }
  - { offsetInCU: 0xD214, offset: 0xD214, size: 0x8, addend: 0x0, symName: __ZNSt3__112__to_addressB8ue170006IcEEPT_S2_, symObjAddr: 0x1A78, symBinAddr: 0x1000021C8, symSize: 0x14 }
  - { offsetInCU: 0xD280, offset: 0xD280, size: 0x8, addend: 0x0, symName: __ZNSt3__116forward_as_tupleB8ue170006IJRKNS_12basic_stringIcNS_11char_traitsIcEENS_9allocatorIcEEEEEEENS_5tupleIJDpOT_EEESC_, symObjAddr: 0x2220, symBinAddr: 0x100002970, symSize: 0x2C }
  - { offsetInCU: 0xD2B9, offset: 0xD2B9, size: 0x8, addend: 0x0, symName: __ZNSt3__116forward_as_tupleB8ue170006IJEEENS_5tupleIJDpOT_EEES4_, symObjAddr: 0x224C, symBinAddr: 0x10000299C, symSize: 0x4 }
  - { offsetInCU: 0xD2DD, offset: 0xD2DD, size: 0x8, addend: 0x0, symName: __ZNSt3__116__constrain_hashB8ue170006Emm, symObjAddr: 0x2320, symBinAddr: 0x100002A70, symSize: 0x98 }
  - { offsetInCU: 0xD317, offset: 0xD317, size: 0x8, addend: 0x0, symName: __ZNSt3__13maxB8ue170006ImEERKT_S3_S3_, symObjAddr: 0x2664, symBinAddr: 0x100002DB4, symSize: 0x2C }
  - { offsetInCU: 0xD35A, offset: 0xD35A, size: 0x8, addend: 0x0, symName: __ZNSt3__116__is_hash_power2B8ue170006Em, symObjAddr: 0x2690, symBinAddr: 0x100002DE0, symSize: 0x50 }
  - { offsetInCU: 0xD386, offset: 0xD386, size: 0x8, addend: 0x0, symName: __ZNSt3__116__do_string_hashB8ue170006IPKcEEmT_S3_, symObjAddr: 0x290C, symBinAddr: 0x10000305C, symSize: 0x3C }
  - { offsetInCU: 0xD3CC, offset: 0xD3CC, size: 0x8, addend: 0x0, symName: __ZNSt3__110__loadwordB8ue170006ImEET_PKv, symObjAddr: 0x3328, symBinAddr: 0x100003A78, symSize: 0x20 }
  - { offsetInCU: 0xD40F, offset: 0xD40F, size: 0x8, addend: 0x0, symName: __ZNSt3__14swapB8ue170006ImEENS_9enable_ifIXaasr21is_move_constructibleIT_EE5valuesr18is_move_assignableIS2_EE5valueEvE4typeERS2_S5_, symObjAddr: 0x34E4, symBinAddr: 0x100003C34, symSize: 0x3C }
  - { offsetInCU: 0xD460, offset: 0xD460, size: 0x8, addend: 0x0, symName: __ZNSt3__110__loadwordB8ue170006IjEET_PKv, symObjAddr: 0x3574, symBinAddr: 0x100003CC4, symSize: 0x20 }
  - { offsetInCU: 0xD4A3, offset: 0xD4A3, size: 0x8, addend: 0x0, symName: __ZNSt3__112__to_addressB8ue170006IKcEEPT_S3_, symObjAddr: 0x36DC, symBinAddr: 0x100003E2C, symSize: 0x14 }
  - { offsetInCU: 0xD50B, offset: 0xD50B, size: 0x8, addend: 0x0, symName: __ZNSt3__1eqB8ue170006INS_9allocatorIcEEEEbRKNS_12basic_stringIcNS_11char_traitsIcEET_EES9_, symObjAddr: 0x3930, symBinAddr: 0x100004080, symSize: 0x148 }
  - { offsetInCU: 0xD57E, offset: 0xD57E, size: 0x8, addend: 0x0, symName: __ZNSt3__17launderB8ue170006IKNS_4pairIKNS_12basic_stringIcNS_11char_traitsIcEENS_9allocatorIcEEEENS_6vectorIS7_NS5_IS7_EEEEEEEEPT_SF_, symObjAddr: 0x3AAC, symBinAddr: 0x1000041FC, symSize: 0x24 }
  - { offsetInCU: 0xD5B5, offset: 0xD5B5, size: 0x8, addend: 0x0, symName: __ZNSt3__19__launderB8ue170006IKNS_4pairIKNS_12basic_stringIcNS_11char_traitsIcEENS_9allocatorIcEEEENS_6vectorIS7_NS5_IS7_EEEEEEEEPT_SF_, symObjAddr: 0x3AD0, symBinAddr: 0x100004220, symSize: 0x14 }
  - { offsetInCU: 0xD63D, offset: 0xD63D, size: 0x8, addend: 0x0, symName: __ZNSt3__117__libcpp_allocateB8ue170006Emm, symObjAddr: 0x3D44, symBinAddr: 0x100004494, symSize: 0x60 }
  - { offsetInCU: 0xD697, offset: 0xD697, size: 0x8, addend: 0x0, symName: __ZNSt3__124__is_overaligned_for_newB8ue170006Em, symObjAddr: 0x3DC0, symBinAddr: 0x100004510, symSize: 0x20 }
  - { offsetInCU: 0xD6C5, offset: 0xD6C5, size: 0x8, addend: 0x0, symName: __ZNSt3__121__libcpp_operator_newB8ue170006IJmSt11align_val_tEEEPvDpT_, symObjAddr: 0x3DE0, symBinAddr: 0x100004530, symSize: 0x2C }
  - { offsetInCU: 0xD712, offset: 0xD712, size: 0x8, addend: 0x0, symName: __ZNSt3__121__libcpp_operator_newB8ue170006IJmEEEPvDpT_, symObjAddr: 0x3E0C, symBinAddr: 0x10000455C, symSize: 0x24 }
  - { offsetInCU: 0xD770, offset: 0xD770, size: 0x8, addend: 0x0, symName: __ZNSt3__112construct_atB8ue170006INS_4pairIKNS_12basic_stringIcNS_11char_traitsIcEENS_9allocatorIcEEEENS_6vectorIS7_NS5_IS7_EEEEEEJRKNS_21piecewise_construct_tENS_5tupleIJRS8_EEENSG_IJEEEEPSC_EEPT_SM_DpOT0_, symObjAddr: 0x3F7C, symBinAddr: 0x1000046CC, symSize: 0x50 }
  - { offsetInCU: 0xD811, offset: 0xD811, size: 0x8, addend: 0x0, symName: __ZNSt3__13getB8ue170006ILm0EJRKNS_12basic_stringIcNS_11char_traitsIcEENS_9allocatorIcEEEEEEERNS_13tuple_elementIXT_ENS_5tupleIJDpT0_EEEE4typeERSD_, symObjAddr: 0x4094, symBinAddr: 0x1000047E4, symSize: 0x24 }
  - { offsetInCU: 0xD854, offset: 0xD854, size: 0x8, addend: 0x0, symName: __ZNSt3__116__next_hash_pow2B8ue170006Em, symObjAddr: 0x4728, symBinAddr: 0x100004E78, symSize: 0x6C }
  - { offsetInCU: 0xD89C, offset: 0xD89C, size: 0x8, addend: 0x0, symName: __ZNSt3__119__libcpp_deallocateB8ue170006EPvmm, symObjAddr: 0x4A1C, symBinAddr: 0x10000516C, symSize: 0x60 }
  - { offsetInCU: 0xD901, offset: 0xD901, size: 0x8, addend: 0x0, symName: __ZNSt3__127__do_deallocate_handle_sizeB8ue170006IJSt11align_val_tEEEvPvmDpT_, symObjAddr: 0x4A7C, symBinAddr: 0x1000051CC, symSize: 0x30 }
  - { offsetInCU: 0xD954, offset: 0xD954, size: 0x8, addend: 0x0, symName: __ZNSt3__127__do_deallocate_handle_sizeB8ue170006IJEEEvPvmDpT_, symObjAddr: 0x4AAC, symBinAddr: 0x1000051FC, symSize: 0x28 }
  - { offsetInCU: 0xD992, offset: 0xD992, size: 0x8, addend: 0x0, symName: __ZNSt3__124__libcpp_operator_deleteB8ue170006IJPvSt11align_val_tEEEvDpT_, symObjAddr: 0x4AD4, symBinAddr: 0x100005224, symSize: 0x2C }
  - { offsetInCU: 0xD9DB, offset: 0xD9DB, size: 0x8, addend: 0x0, symName: __ZNSt3__124__libcpp_operator_deleteB8ue170006IJPvEEEvDpT_, symObjAddr: 0x4B00, symBinAddr: 0x100005250, symSize: 0x24 }
  - { offsetInCU: 0xDA10, offset: 0xDA10, size: 0x8, addend: 0x0, symName: __ZNSt3__112__libcpp_clzB8ue170006Em, symObjAddr: 0x4BC8, symBinAddr: 0x100005318, symSize: 0x1C }
  - { offsetInCU: 0xDA3C, offset: 0xDA3C, size: 0x8, addend: 0x0, symName: __ZNSt3__13maxB8ue170006ImNS_6__lessIvvEEEERKT_S5_S5_T0_, symObjAddr: 0x4BE4, symBinAddr: 0x100005334, symSize: 0x54 }
  - { offsetInCU: 0xDADB, offset: 0xDADB, size: 0x8, addend: 0x0, symName: __ZNSt3__110destroy_atB8ue170006INS_4pairIKNS_12basic_stringIcNS_11char_traitsIcEENS_9allocatorIcEEEENS_6vectorIS7_NS5_IS7_EEEEEELi0EEEvPT_, symObjAddr: 0x4E8C, symBinAddr: 0x1000055DC, symSize: 0x24 }
  - { offsetInCU: 0xDB12, offset: 0xDB12, size: 0x8, addend: 0x0, symName: __ZNSt3__112__destroy_atB8ue170006INS_4pairIKNS_12basic_stringIcNS_11char_traitsIcEENS_9allocatorIcEEEENS_6vectorIS7_NS5_IS7_EEEEEELi0EEEvPT_, symObjAddr: 0x4EB0, symBinAddr: 0x100005600, symSize: 0x24 }
  - { offsetInCU: 0xDBA0, offset: 0xDBA0, size: 0x8, addend: 0x0, symName: __ZNSt3__17launderB8ue170006INS_4pairIKNS_12basic_stringIcNS_11char_traitsIcEENS_9allocatorIcEEEENS_6vectorIS7_NS5_IS7_EEEEEEEEPT_SE_, symObjAddr: 0x50D4, symBinAddr: 0x100005824, symSize: 0x24 }
  - { offsetInCU: 0xDBD7, offset: 0xDBD7, size: 0x8, addend: 0x0, symName: __ZNSt3__19__launderB8ue170006INS_4pairIKNS_12basic_stringIcNS_11char_traitsIcEENS_9allocatorIcEEEENS_6vectorIS7_NS5_IS7_EEEEEEEEPT_SE_, symObjAddr: 0x50F8, symBinAddr: 0x100005848, symSize: 0x14 }
  - { offsetInCU: 0xDC0E, offset: 0xDC0E, size: 0x8, addend: 0x0, symName: __ZNSt3__112__to_addressB8ue170006INS_12basic_stringIcNS_11char_traitsIcEENS_9allocatorIcEEEEEEPT_S8_, symObjAddr: 0x5368, symBinAddr: 0x100005AB8, symSize: 0x14 }
  - { offsetInCU: 0xDC68, offset: 0xDC68, size: 0x8, addend: 0x0, symName: __ZNSt3__112construct_atB8ue170006INS_12basic_stringIcNS_11char_traitsIcEENS_9allocatorIcEEEEJRKS6_EPS6_EEPT_SB_DpOT0_, symObjAddr: 0x53F4, symBinAddr: 0x100005B44, symSize: 0x3C }
  - { offsetInCU: 0xDCD8, offset: 0xDCD8, size: 0x8, addend: 0x0, symName: __ZNSt3__13minB8ue170006ImEERKT_S3_S3_, symObjAddr: 0x57A0, symBinAddr: 0x100005EF0, symSize: 0x2C }
  - { offsetInCU: 0xDF05, offset: 0xDF05, size: 0x8, addend: 0x0, symName: __ZNSt3__13minB8ue170006ImNS_6__lessIvvEEEERKT_S5_S5_T0_, symObjAddr: 0x5830, symBinAddr: 0x100005F80, symSize: 0x54 }
  - { offsetInCU: 0xDF5F, offset: 0xDF5F, size: 0x8, addend: 0x0, symName: __ZNSt3__120__throw_length_errorB8ue170006EPKc, symObjAddr: 0x58C4, symBinAddr: 0x100006014, symSize: 0x64 }
  - { offsetInCU: 0xDF89, offset: 0xDF89, size: 0x8, addend: 0x0, symName: __ZNSt3__119__allocate_at_leastB8ue170006INS_9allocatorINS_12basic_stringIcNS_11char_traitsIcEENS1_IcEEEEEEEENS_19__allocation_resultINS_16allocator_traitsIT_E7pointerEEERSA_m, symObjAddr: 0x5B24, symBinAddr: 0x100006274, symSize: 0x40 }
  - { offsetInCU: 0xDFCC, offset: 0xDFCC, size: 0x8, addend: 0x0, symName: __ZNSt3__142__uninitialized_allocator_move_if_noexceptB8ue170006INS_9allocatorINS_12basic_stringIcNS_11char_traitsIcEENS1_IcEEEEEENS_16reverse_iteratorIPS6_EESA_SA_EET2_RT_T0_T1_SB_, symObjAddr: 0x5DB0, symBinAddr: 0x100006500, symSize: 0x12C }
  - { offsetInCU: 0xE06C, offset: 0xE06C, size: 0x8, addend: 0x0, symName: __ZNSt3__14swapB8ue170006IPNS_12basic_stringIcNS_11char_traitsIcEENS_9allocatorIcEEEEEENS_9enable_ifIXaasr21is_move_constructibleIT_EE5valuesr18is_move_assignableIS9_EE5valueEvE4typeERS9_SC_, symObjAddr: 0x5F28, symBinAddr: 0x100006678, symSize: 0x3C }
  - { offsetInCU: 0xE0BD, offset: 0xE0BD, size: 0x8, addend: 0x0, symName: __ZNSt3__122__make_exception_guardB8ue170006INS_29_AllocatorDestroyRangeReverseINS_9allocatorINS_12basic_stringIcNS_11char_traitsIcEENS2_IcEEEEEENS_16reverse_iteratorIPS7_EEEEEENS_28__exception_guard_exceptionsIT_EESE_, symObjAddr: 0x6074, symBinAddr: 0x1000067C4, symSize: 0x4C }
  - { offsetInCU: 0xE0F3, offset: 0xE0F3, size: 0x8, addend: 0x0, symName: __ZNSt3__1neB8ue170006IPNS_12basic_stringIcNS_11char_traitsIcEENS_9allocatorIcEEEES7_EEbRKNS_16reverse_iteratorIT_EERKNS8_IT0_EE, symObjAddr: 0x6104, symBinAddr: 0x100006854, symSize: 0x48 }
  - { offsetInCU: 0xE13F, offset: 0xE13F, size: 0x8, addend: 0x0, symName: __ZNSt3__112__to_addressB8ue170006INS_16reverse_iteratorIPNS_12basic_stringIcNS_11char_traitsIcEENS_9allocatorIcEEEEEEvEEu7__decayIDTclsr19__to_address_helperIT_EE6__callclsr3stdE7declvalIRKSA_EEEEESC_, symObjAddr: 0x617C, symBinAddr: 0x1000068CC, symSize: 0x24 }
  - { offsetInCU: 0xE175, offset: 0xE175, size: 0x8, addend: 0x0, symName: __ZNSt3__112construct_atB8ue170006INS_12basic_stringIcNS_11char_traitsIcEENS_9allocatorIcEEEEJS6_EPS6_EEPT_S9_DpOT0_, symObjAddr: 0x62CC, symBinAddr: 0x100006A1C, symSize: 0x3C }
  - { offsetInCU: 0xE20E, offset: 0xE20E, size: 0x8, addend: 0x0, symName: __ZNSt3__14prevB8ue170006IPNS_12basic_stringIcNS_11char_traitsIcEENS_9allocatorIcEEEEEENS_9enable_ifIXsr29__has_input_iterator_categoryIT_EE5valueES9_E4typeES9_NS_15iterator_traitsIS9_E15difference_typeE, symObjAddr: 0x6430, symBinAddr: 0x100006B80, symSize: 0x3C }
  - { offsetInCU: 0xE251, offset: 0xE251, size: 0x8, addend: 0x0, symName: __ZNSt3__121__convert_to_integralB8ue170006El, symObjAddr: 0x64A4, symBinAddr: 0x100006BF4, symSize: 0x14 }
  - { offsetInCU: 0xE27D, offset: 0xE27D, size: 0x8, addend: 0x0, symName: __ZNSt3__19__advanceB8ue170006IPNS_12basic_stringIcNS_11char_traitsIcEENS_9allocatorIcEEEEEEvRT_NS_15iterator_traitsIS8_E15difference_typeENS_26random_access_iterator_tagE, symObjAddr: 0x64B8, symBinAddr: 0x100006C08, symSize: 0x30 }
  - { offsetInCU: 0xE2C6, offset: 0xE2C6, size: 0x8, addend: 0x0, symName: __ZNSt3__119__allocator_destroyB8ue170006INS_9allocatorINS_12basic_stringIcNS_11char_traitsIcEENS1_IcEEEEEENS_16reverse_iteratorINS8_IPS6_EEEESB_EEvRT_T0_T1_, symObjAddr: 0x65EC, symBinAddr: 0x100006D3C, symSize: 0x70 }
  - { offsetInCU: 0xE32B, offset: 0xE32B, size: 0x8, addend: 0x0, symName: __ZNSt3__1neB8ue170006INS_16reverse_iteratorIPNS_12basic_stringIcNS_11char_traitsIcEENS_9allocatorIcEEEEEES9_EEbRKNS1_IT_EERKNS1_IT0_EE, symObjAddr: 0x6698, symBinAddr: 0x100006DE8, symSize: 0x60 }
  - { offsetInCU: 0xE377, offset: 0xE377, size: 0x8, addend: 0x0, symName: __ZNSt3__112__to_addressB8ue170006INS_16reverse_iteratorINS1_IPNS_12basic_stringIcNS_11char_traitsIcEENS_9allocatorIcEEEEEEEEvEEu7__decayIDTclsr19__to_address_helperIT_EE6__callclsr3stdE7declvalIRKSB_EEEEESD_, symObjAddr: 0x6720, symBinAddr: 0x100006E70, symSize: 0x24 }
  - { offsetInCU: 0xE3AD, offset: 0xE3AD, size: 0x8, addend: 0x0, symName: __ZNSt3__110destroy_atB8ue170006INS_12basic_stringIcNS_11char_traitsIcEENS_9allocatorIcEEEELi0EEEvPT_, symObjAddr: 0x6798, symBinAddr: 0x100006EE8, symSize: 0x24 }
  - { offsetInCU: 0xE3E4, offset: 0xE3E4, size: 0x8, addend: 0x0, symName: __ZNSt3__112__destroy_atB8ue170006INS_12basic_stringIcNS_11char_traitsIcEENS_9allocatorIcEEEELi0EEEvPT_, symObjAddr: 0x67BC, symBinAddr: 0x100006F0C, symSize: 0x24 }
  - { offsetInCU: 0xE444, offset: 0xE444, size: 0x8, addend: 0x0, symName: __ZNSt3__14prevB8ue170006INS_16reverse_iteratorIPNS_12basic_stringIcNS_11char_traitsIcEENS_9allocatorIcEEEEEEEENS_9enable_ifIXsr29__has_input_iterator_categoryIT_EE5valueESB_E4typeESB_NS_15iterator_traitsISB_E15difference_typeE, symObjAddr: 0x6864, symBinAddr: 0x100006FB4, symSize: 0x4C }
  - { offsetInCU: 0xE487, offset: 0xE487, size: 0x8, addend: 0x0, symName: __ZNSt3__19__advanceB8ue170006INS_16reverse_iteratorIPNS_12basic_stringIcNS_11char_traitsIcEENS_9allocatorIcEEEEEEEEvRT_NS_15iterator_traitsISA_E15difference_typeENS_26random_access_iterator_tagE, symObjAddr: 0x68E8, symBinAddr: 0x100007038, symSize: 0x2C }
  - { offsetInCU: 0xE4D0, offset: 0xE4D0, size: 0x8, addend: 0x0, symName: __ZNSt3__1eqB8ue170006ERKNS_15__hash_iteratorIPNS_11__hash_nodeINS_17__hash_value_typeINS_12basic_stringIcNS_11char_traitsIcEENS_9allocatorIcEEEENS_6vectorIS8_NS6_IS8_EEEEEEPvEEEESI_, symObjAddr: 0x6E24, symBinAddr: 0x100007574, symSize: 0x30 }
  - { offsetInCU: 0xE50D, offset: 0xE50D, size: 0x8, addend: 0x0, symName: __ZNSt3__112__to_addressB8ue170006INS_6vectorINS_12basic_stringIcNS_11char_traitsIcEENS_9allocatorIcEEEENS5_IS7_EEEEEEPT_SB_, symObjAddr: 0x70B0, symBinAddr: 0x100007800, symSize: 0x14 }
  - { offsetInCU: 0xE567, offset: 0xE567, size: 0x8, addend: 0x0, symName: __ZNSt3__112construct_atB8ue170006INS_6vectorINS_12basic_stringIcNS_11char_traitsIcEENS_9allocatorIcEEEENS5_IS7_EEEEJRKS9_EPS9_EEPT_SE_DpOT0_, symObjAddr: 0x713C, symBinAddr: 0x10000788C, symSize: 0x3C }
  - { offsetInCU: 0xE5D7, offset: 0xE5D7, size: 0x8, addend: 0x0, symName: __ZNSt3__122__make_exception_guardB8ue170006INS_6vectorINS_12basic_stringIcNS_11char_traitsIcEENS_9allocatorIcEEEENS5_IS7_EEE16__destroy_vectorEEENS_28__exception_guard_exceptionsIT_EESC_, symObjAddr: 0x73A0, symBinAddr: 0x100007AF0, symSize: 0x40 }
  - { offsetInCU: 0xE60C, offset: 0xE60C, size: 0x8, addend: 0x0, symName: __ZNSt3__130__uninitialized_allocator_copyB8ue170006INS_9allocatorINS_12basic_stringIcNS_11char_traitsIcEENS1_IcEEEEEEPS6_S8_S8_EET2_RT_T0_T1_S9_, symObjAddr: 0x7614, symBinAddr: 0x100007D64, symSize: 0x80 }
  - { offsetInCU: 0xE6A9, offset: 0xE6A9, size: 0x8, addend: 0x0, symName: __ZNSt3__114__unwrap_rangeB8ue170006IPNS_12basic_stringIcNS_11char_traitsIcEENS_9allocatorIcEEEES7_EEDaT_T0_, symObjAddr: 0x7694, symBinAddr: 0x100007DE4, symSize: 0x3C }
  - { offsetInCU: 0xE6F5, offset: 0xE6F5, size: 0x8, addend: 0x0, symName: __ZNSt3__135__uninitialized_allocator_copy_implB8ue170006INS_9allocatorINS_12basic_stringIcNS_11char_traitsIcEENS1_IcEEEEEEPS6_S8_S8_EET2_RT_T0_T1_S9_, symObjAddr: 0x76D0, symBinAddr: 0x100007E20, symSize: 0xF4 }
  - { offsetInCU: 0xE793, offset: 0xE793, size: 0x8, addend: 0x0, symName: __ZNSt3__113__unwrap_iterB8ue170006IPNS_12basic_stringIcNS_11char_traitsIcEENS_9allocatorIcEEEENS_18__unwrap_iter_implIS7_Lb1EEELi0EEEDTclsrT0_8__unwrapclsr3stdE7declvalIT_EEEESB_, symObjAddr: 0x77C4, symBinAddr: 0x100007F14, symSize: 0x24 }
  - { offsetInCU: 0xE7D7, offset: 0xE7D7, size: 0x8, addend: 0x0, symName: __ZNSt3__113__rewrap_iterB8ue170006IPNS_12basic_stringIcNS_11char_traitsIcEENS_9allocatorIcEEEES7_NS_18__unwrap_iter_implIS7_Lb1EEEEET_SA_T0_, symObjAddr: 0x77E8, symBinAddr: 0x100007F38, symSize: 0x3C }
  - { offsetInCU: 0xE92E, offset: 0xE92E, size: 0x8, addend: 0x0, symName: __ZNSt3__122__make_exception_guardB8ue170006INS_29_AllocatorDestroyRangeReverseINS_9allocatorINS_12basic_stringIcNS_11char_traitsIcEENS2_IcEEEEEEPS7_EEEENS_28__exception_guard_exceptionsIT_EESC_, symObjAddr: 0x78EC, symBinAddr: 0x10000803C, symSize: 0x4C }
  - { offsetInCU: 0xE964, offset: 0xE964, size: 0x8, addend: 0x0, symName: __ZNSt3__112construct_atB8ue170006INS_12basic_stringIcNS_11char_traitsIcEENS_9allocatorIcEEEEJRS6_EPS6_EEPT_SA_DpOT0_, symObjAddr: 0x7A90, symBinAddr: 0x1000081E0, symSize: 0x3C }
  - { offsetInCU: 0xE9D4, offset: 0xE9D4, size: 0x8, addend: 0x0, symName: __ZNSt3__119__allocator_destroyB8ue170006INS_9allocatorINS_12basic_stringIcNS_11char_traitsIcEENS1_IcEEEEEENS_16reverse_iteratorIPS6_EESA_EEvRT_T0_T1_, symObjAddr: 0x7B84, symBinAddr: 0x1000082D4, symSize: 0x70 }
  - { offsetInCU: 0xEA8A, offset: 0xEA8A, size: 0x8, addend: 0x0, symName: __ZNSt3__119__allocate_at_leastB8ue170006INS_9allocatorINS_6vectorINS_12basic_stringIcNS_11char_traitsIcEENS1_IcEEEENS1_IS7_EEEEEEEENS_19__allocation_resultINS_16allocator_traitsIT_E7pointerEEERSD_m, symObjAddr: 0x8378, symBinAddr: 0x100008AC8, symSize: 0x40 }
  - { offsetInCU: 0xEACD, offset: 0xEACD, size: 0x8, addend: 0x0, symName: __ZNSt3__142__uninitialized_allocator_move_if_noexceptB8ue170006INS_9allocatorINS_6vectorINS_12basic_stringIcNS_11char_traitsIcEENS1_IcEEEENS1_IS7_EEEEEENS_16reverse_iteratorIPS9_EESD_SD_EET2_RT_T0_T1_SE_, symObjAddr: 0x8604, symBinAddr: 0x100008D54, symSize: 0x12C }
  - { offsetInCU: 0xEB6D, offset: 0xEB6D, size: 0x8, addend: 0x0, symName: __ZNSt3__14swapB8ue170006IPNS_6vectorINS_12basic_stringIcNS_11char_traitsIcEENS_9allocatorIcEEEENS5_IS7_EEEEEENS_9enable_ifIXaasr21is_move_constructibleIT_EE5valuesr18is_move_assignableISC_EE5valueEvE4typeERSC_SF_, symObjAddr: 0x877C, symBinAddr: 0x100008ECC, symSize: 0x3C }
  - { offsetInCU: 0xEBBE, offset: 0xEBBE, size: 0x8, addend: 0x0, symName: __ZNSt3__122__make_exception_guardB8ue170006INS_29_AllocatorDestroyRangeReverseINS_9allocatorINS_6vectorINS_12basic_stringIcNS_11char_traitsIcEENS2_IcEEEENS2_IS8_EEEEEENS_16reverse_iteratorIPSA_EEEEEENS_28__exception_guard_exceptionsIT_EESH_, symObjAddr: 0x88C8, symBinAddr: 0x100009018, symSize: 0x4C }
  - { offsetInCU: 0xEBF4, offset: 0xEBF4, size: 0x8, addend: 0x0, symName: __ZNSt3__1neB8ue170006IPNS_6vectorINS_12basic_stringIcNS_11char_traitsIcEENS_9allocatorIcEEEENS5_IS7_EEEESA_EEbRKNS_16reverse_iteratorIT_EERKNSB_IT0_EE, symObjAddr: 0x8958, symBinAddr: 0x1000090A8, symSize: 0x48 }
  - { offsetInCU: 0xEC40, offset: 0xEC40, size: 0x8, addend: 0x0, symName: __ZNSt3__112__to_addressB8ue170006INS_16reverse_iteratorIPNS_6vectorINS_12basic_stringIcNS_11char_traitsIcEENS_9allocatorIcEEEENS6_IS8_EEEEEEvEEu7__decayIDTclsr19__to_address_helperIT_EE6__callclsr3stdE7declvalIRKSD_EEEEESF_, symObjAddr: 0x89D0, symBinAddr: 0x100009120, symSize: 0x24 }
  - { offsetInCU: 0xEC76, offset: 0xEC76, size: 0x8, addend: 0x0, symName: __ZNSt3__112construct_atB8ue170006INS_6vectorINS_12basic_stringIcNS_11char_traitsIcEENS_9allocatorIcEEEENS5_IS7_EEEEJS9_EPS9_EEPT_SC_DpOT0_, symObjAddr: 0x8B20, symBinAddr: 0x100009270, symSize: 0x3C }
  - { offsetInCU: 0xED0F, offset: 0xED0F, size: 0x8, addend: 0x0, symName: __ZNSt3__14prevB8ue170006IPNS_6vectorINS_12basic_stringIcNS_11char_traitsIcEENS_9allocatorIcEEEENS5_IS7_EEEEEENS_9enable_ifIXsr29__has_input_iterator_categoryIT_EE5valueESC_E4typeESC_NS_15iterator_traitsISC_E15difference_typeE, symObjAddr: 0x8CB8, symBinAddr: 0x100009408, symSize: 0x3C }
  - { offsetInCU: 0xED52, offset: 0xED52, size: 0x8, addend: 0x0, symName: __ZNSt3__19__advanceB8ue170006IPNS_6vectorINS_12basic_stringIcNS_11char_traitsIcEENS_9allocatorIcEEEENS5_IS7_EEEEEEvRT_NS_15iterator_traitsISB_E15difference_typeENS_26random_access_iterator_tagE, symObjAddr: 0x8D2C, symBinAddr: 0x10000947C, symSize: 0x30 }
  - { offsetInCU: 0xED9B, offset: 0xED9B, size: 0x8, addend: 0x0, symName: __ZNSt3__119__allocator_destroyB8ue170006INS_9allocatorINS_6vectorINS_12basic_stringIcNS_11char_traitsIcEENS1_IcEEEENS1_IS7_EEEEEENS_16reverse_iteratorINSB_IPS9_EEEESE_EEvRT_T0_T1_, symObjAddr: 0x8E60, symBinAddr: 0x1000095B0, symSize: 0x70 }
  - { offsetInCU: 0xEE00, offset: 0xEE00, size: 0x8, addend: 0x0, symName: __ZNSt3__1neB8ue170006INS_16reverse_iteratorIPNS_6vectorINS_12basic_stringIcNS_11char_traitsIcEENS_9allocatorIcEEEENS6_IS8_EEEEEESC_EEbRKNS1_IT_EERKNS1_IT0_EE, symObjAddr: 0x8F0C, symBinAddr: 0x10000965C, symSize: 0x60 }
  - { offsetInCU: 0xEE4C, offset: 0xEE4C, size: 0x8, addend: 0x0, symName: __ZNSt3__112__to_addressB8ue170006INS_16reverse_iteratorINS1_IPNS_6vectorINS_12basic_stringIcNS_11char_traitsIcEENS_9allocatorIcEEEENS6_IS8_EEEEEEEEvEEu7__decayIDTclsr19__to_address_helperIT_EE6__callclsr3stdE7declvalIRKSE_EEEEESG_, symObjAddr: 0x8F94, symBinAddr: 0x1000096E4, symSize: 0x24 }
  - { offsetInCU: 0xEE82, offset: 0xEE82, size: 0x8, addend: 0x0, symName: __ZNSt3__110destroy_atB8ue170006INS_6vectorINS_12basic_stringIcNS_11char_traitsIcEENS_9allocatorIcEEEENS5_IS7_EEEELi0EEEvPT_, symObjAddr: 0x900C, symBinAddr: 0x10000975C, symSize: 0x24 }
  - { offsetInCU: 0xEEB9, offset: 0xEEB9, size: 0x8, addend: 0x0, symName: __ZNSt3__112__destroy_atB8ue170006INS_6vectorINS_12basic_stringIcNS_11char_traitsIcEENS_9allocatorIcEEEENS5_IS7_EEEELi0EEEvPT_, symObjAddr: 0x9030, symBinAddr: 0x100009780, symSize: 0x24 }
  - { offsetInCU: 0xEF19, offset: 0xEF19, size: 0x8, addend: 0x0, symName: __ZNSt3__14prevB8ue170006INS_16reverse_iteratorIPNS_6vectorINS_12basic_stringIcNS_11char_traitsIcEENS_9allocatorIcEEEENS6_IS8_EEEEEEEENS_9enable_ifIXsr29__has_input_iterator_categoryIT_EE5valueESE_E4typeESE_NS_15iterator_traitsISE_E15difference_typeE, symObjAddr: 0x90D8, symBinAddr: 0x100009828, symSize: 0x4C }
  - { offsetInCU: 0xEF5C, offset: 0xEF5C, size: 0x8, addend: 0x0, symName: __ZNSt3__19__advanceB8ue170006INS_16reverse_iteratorIPNS_6vectorINS_12basic_stringIcNS_11char_traitsIcEENS_9allocatorIcEEEENS6_IS8_EEEEEEEEvRT_NS_15iterator_traitsISD_E15difference_typeENS_26random_access_iterator_tagE, symObjAddr: 0x915C, symBinAddr: 0x1000098AC, symSize: 0x2C }
  - { offsetInCU: 0xEFA5, offset: 0xEFA5, size: 0x8, addend: 0x0, symName: __ZNSt3__1eqB8ue170006IPNS_6vectorINS_12basic_stringIcNS_11char_traitsIcEENS_9allocatorIcEEEENS5_IS7_EEEEEEbRKNS_11__wrap_iterIT_EESF_, symObjAddr: 0x9744, symBinAddr: 0x100009E94, symSize: 0x48 }
  - { offsetInCU: 0xEFE8, offset: 0xEFE8, size: 0x8, addend: 0x0, symName: __ZNSt3__1eqB8ue170006IPKNS_12basic_stringIcNS_11char_traitsIcEENS_9allocatorIcEEEEEEbRKNS_11__wrap_iterIT_EESD_, symObjAddr: 0x9828, symBinAddr: 0x100009F78, symSize: 0x48 }
  - { offsetInCU: 0xF02B, offset: 0xF02B, size: 0x8, addend: 0x0, symName: __ZNSt3__118__constexpr_strlenB8ue170006EPKc, symObjAddr: 0x9BE8, symBinAddr: 0x10000A338, symSize: 0x24 }
  - { offsetInCU: 0xF057, offset: 0xF057, size: 0x8, addend: 0x0, symName: __ZNSt3__130__uninitialized_allocator_copyB8ue170006INS_9allocatorINS_12basic_stringIcNS_11char_traitsIcEENS1_IcEEEEEEPKS6_S9_PS6_EET2_RT_T0_T1_SB_, symObjAddr: 0x9E10, symBinAddr: 0x10000A560, symSize: 0x80 }
  - { offsetInCU: 0xF0F4, offset: 0xF0F4, size: 0x8, addend: 0x0, symName: __ZNSt3__114__unwrap_rangeB8ue170006IPKNS_12basic_stringIcNS_11char_traitsIcEENS_9allocatorIcEEEES8_EEDaT_T0_, symObjAddr: 0x9E90, symBinAddr: 0x10000A5E0, symSize: 0x3C }
  - { offsetInCU: 0xF140, offset: 0xF140, size: 0x8, addend: 0x0, symName: __ZNSt3__135__uninitialized_allocator_copy_implB8ue170006INS_9allocatorINS_12basic_stringIcNS_11char_traitsIcEENS1_IcEEEEEEPKS6_S9_PS6_EET2_RT_T0_T1_SB_, symObjAddr: 0x9ECC, symBinAddr: 0x10000A61C, symSize: 0xF4 }
  - { offsetInCU: 0xF2E0, offset: 0xF2E0, size: 0x8, addend: 0x0, symName: __ZNSt3__113__unwrap_iterB8ue170006IPKNS_12basic_stringIcNS_11char_traitsIcEENS_9allocatorIcEEEENS_18__unwrap_iter_implIS8_Lb1EEELi0EEEDTclsrT0_8__unwrapclsr3stdE7declvalIT_EEEESC_, symObjAddr: 0xA018, symBinAddr: 0x10000A768, symSize: 0x24 }
  - { offsetInCU: 0xF377, offset: 0xF377, size: 0x8, addend: 0x0, symName: __ZNSt3__112__to_addressB8ue170006IKNS_12basic_stringIcNS_11char_traitsIcEENS_9allocatorIcEEEEEEPT_S9_, symObjAddr: 0xA09C, symBinAddr: 0x10000A7EC, symSize: 0x14 }
  - { offsetInCU: 0xF3AC, offset: 0xF3AC, size: 0x8, addend: 0x0, symName: __ZNSt3__116__pad_and_outputB8ue170006IcNS_11char_traitsIcEEEENS_19ostreambuf_iteratorIT_T0_EES6_PKS4_S8_S8_RNS_8ios_baseES4_, symObjAddr: 0xA32C, symBinAddr: 0x10000AA7C, symSize: 0x240 }
  - { offsetInCU: 0xF47B, offset: 0xF47B, size: 0x8, addend: 0x0, symName: __ZNSt3__19use_facetB8ue170006INS_5ctypeIcEEEERKT_RKNS_6localeE, symObjAddr: 0xA8E0, symBinAddr: 0x10000B030, symSize: 0x2C }
  - { offsetInCU: 0xFDC1, offset: 0xFDC1, size: 0x8, addend: 0x0, symName: __ZSt28__throw_bad_array_new_lengthB8ue170006v, symObjAddr: 0x3D10, symBinAddr: 0x100004460, symSize: 0x34 }
  - { offsetInCU: 0x1082E, offset: 0x1082E, size: 0x8, addend: 0x0, symName: __ZNSt3__16vectorINS_12basic_stringIcNS_11char_traitsIcEENS_9allocatorIcEEEENS4_IS6_EEE26__swap_out_circular_bufferERNS_14__split_bufferIS6_RS7_EE, symObjAddr: 0x55A8, symBinAddr: 0x100005CF8, symSize: 0x110 }
  - { offsetInCU: 0x10AB1, offset: 0x10AB1, size: 0x8, addend: 0x0, symName: __ZNSt3__16vectorINS0_INS_12basic_stringIcNS_11char_traitsIcEENS_9allocatorIcEEEENS4_IS6_EEEENS4_IS8_EEE26__swap_out_circular_bufferERNS_14__split_bufferIS8_RS9_EE, symObjAddr: 0x7F7C, symBinAddr: 0x1000086CC, symSize: 0x110 }
  - { offsetInCU: 0x12FE9, offset: 0x12FE9, size: 0x8, addend: 0x0, symName: __Z20printGroupedAnagramsR8SolutionRNSt3__16vectorINS1_12basic_stringIcNS1_11char_traitsIcEENS1_9allocatorIcEEEENS6_IS8_EEEE, symObjAddr: 0x0, symBinAddr: 0x100000750, symSize: 0x194 }
  - { offsetInCU: 0x130EC, offset: 0x130EC, size: 0x8, addend: 0x0, symName: __ZN8Solution13groupAnagramsERNSt3__16vectorINS0_12basic_stringIcNS0_11char_traitsIcEENS0_9allocatorIcEEEENS5_IS7_EEEE, symObjAddr: 0x194, symBinAddr: 0x1000008E4, symSize: 0x24C }
  - { offsetInCU: 0x131F3, offset: 0x131F3, size: 0x8, addend: 0x0, symName: __ZNSt3__16vectorINS0_INS_12basic_stringIcNS_11char_traitsIcEENS_9allocatorIcEEEENS4_IS6_EEEENS4_IS8_EEE5beginB8ue170006Ev, symObjAddr: 0x3E0, symBinAddr: 0x100000B30, symSize: 0x30 }
  - { offsetInCU: 0x1321B, offset: 0x1321B, size: 0x8, addend: 0x0, symName: __ZNSt3__16vectorINS0_INS_12basic_stringIcNS_11char_traitsIcEENS_9allocatorIcEEEENS4_IS6_EEEENS4_IS8_EEE3endB8ue170006Ev, symObjAddr: 0x410, symBinAddr: 0x100000B60, symSize: 0x30 }
  - { offsetInCU: 0x13243, offset: 0x13243, size: 0x8, addend: 0x0, symName: __ZNKSt3__111__wrap_iterIPNS_6vectorINS_12basic_stringIcNS_11char_traitsIcEENS_9allocatorIcEEEENS5_IS7_EEEEEdeB8ue170006Ev, symObjAddr: 0x474, symBinAddr: 0x100000BC4, symSize: 0x18 }
  - { offsetInCU: 0x13269, offset: 0x13269, size: 0x8, addend: 0x0, symName: __ZNKSt3__16vectorINS_12basic_stringIcNS_11char_traitsIcEENS_9allocatorIcEEEENS4_IS6_EEE5beginB8ue170006Ev, symObjAddr: 0x4D4, symBinAddr: 0x100000C24, symSize: 0x30 }
  - { offsetInCU: 0x13291, offset: 0x13291, size: 0x8, addend: 0x0, symName: __ZNKSt3__16vectorINS_12basic_stringIcNS_11char_traitsIcEENS_9allocatorIcEEEENS4_IS6_EEE3endB8ue170006Ev, symObjAddr: 0x504, symBinAddr: 0x100000C54, symSize: 0x30 }
  - { offsetInCU: 0x132B9, offset: 0x132B9, size: 0x8, addend: 0x0, symName: __ZNKSt3__111__wrap_iterIPKNS_12basic_stringIcNS_11char_traitsIcEENS_9allocatorIcEEEEEdeB8ue170006Ev, symObjAddr: 0x568, symBinAddr: 0x100000CB8, symSize: 0x18 }
  - { offsetInCU: 0x132DF, offset: 0x132DF, size: 0x8, addend: 0x0, symName: __ZNSt3__111__wrap_iterIPKNS_12basic_stringIcNS_11char_traitsIcEENS_9allocatorIcEEEEEppB8ue170006Ev, symObjAddr: 0x5CC, symBinAddr: 0x100000D1C, symSize: 0x20 }
  - { offsetInCU: 0x13305, offset: 0x13305, size: 0x8, addend: 0x0, symName: __ZNSt3__111__wrap_iterIPNS_6vectorINS_12basic_stringIcNS_11char_traitsIcEENS_9allocatorIcEEEENS5_IS7_EEEEEppB8ue170006Ev, symObjAddr: 0x5EC, symBinAddr: 0x100000D3C, symSize: 0x20 }
  - { offsetInCU: 0x1332B, offset: 0x1332B, size: 0x8, addend: 0x0, symName: __ZNSt3__113basic_ostreamIcNS_11char_traitsIcEEElsB8ue170006EPFRS3_S4_E, symObjAddr: 0x60C, symBinAddr: 0x100000D5C, symSize: 0x2C }
  - { offsetInCU: 0x1335F, offset: 0x1335F, size: 0x8, addend: 0x0, symName: __ZNSt3__16vectorINS0_INS_12basic_stringIcNS_11char_traitsIcEENS_9allocatorIcEEEENS4_IS6_EEEENS4_IS8_EEED1B8ue170006Ev, symObjAddr: 0x690, symBinAddr: 0x100000DE0, symSize: 0x2C }
  - { offsetInCU: 0x13389, offset: 0x13389, size: 0x8, addend: 0x0, symName: _main, symObjAddr: 0x6BC, symBinAddr: 0x100000E0C, symSize: 0x550 }
  - { offsetInCU: 0x133E5, offset: 0x133E5, size: 0x8, addend: 0x0, symName: __ZNSt3__112basic_stringIcNS_11char_traitsIcEENS_9allocatorIcEEEC1B8ue170006ILi0EEEPKc, symObjAddr: 0xC0C, symBinAddr: 0x10000135C, symSize: 0x34 }
  - { offsetInCU: 0x13424, offset: 0x13424, size: 0x8, addend: 0x0, symName: __ZNSt3__16vectorINS_12basic_stringIcNS_11char_traitsIcEENS_9allocatorIcEEEENS4_IS6_EEEC1B8ue170006ESt16initializer_listIS6_E, symObjAddr: 0xC40, symBinAddr: 0x100001390, symSize: 0x3C }
  - { offsetInCU: 0x1345F, offset: 0x1345F, size: 0x8, addend: 0x0, symName: __ZNSt3__16vectorINS_12basic_stringIcNS_11char_traitsIcEENS_9allocatorIcEEEENS4_IS6_EEED1B8ue170006Ev, symObjAddr: 0xC7C, symBinAddr: 0x1000013CC, symSize: 0x2C }
  - { offsetInCU: 0x1352E, offset: 0x1352E, size: 0x8, addend: 0x0, symName: __ZNSt3__113unordered_mapINS_12basic_stringIcNS_11char_traitsIcEENS_9allocatorIcEEEENS_6vectorIS6_NS4_IS6_EEEENS_4hashIS6_EENS_8equal_toIS6_EENS4_INS_4pairIKS6_S9_EEEEEC1B8ue170006Ev, symObjAddr: 0xCA8, symBinAddr: 0x1000013F8, symSize: 0x2C }
  - { offsetInCU: 0x13558, offset: 0x13558, size: 0x8, addend: 0x0, symName: __ZNSt3__16vectorINS_12basic_stringIcNS_11char_traitsIcEENS_9allocatorIcEEEENS4_IS6_EEE5beginB8ue170006Ev, symObjAddr: 0xCD4, symBinAddr: 0x100001424, symSize: 0x30 }
  - { offsetInCU: 0x13580, offset: 0x13580, size: 0x8, addend: 0x0, symName: __ZNSt3__16vectorINS_12basic_stringIcNS_11char_traitsIcEENS_9allocatorIcEEEENS4_IS6_EEE3endB8ue170006Ev, symObjAddr: 0xD04, symBinAddr: 0x100001454, symSize: 0x30 }
  - { offsetInCU: 0x135A8, offset: 0x135A8, size: 0x8, addend: 0x0, symName: __ZNKSt3__111__wrap_iterIPNS_12basic_stringIcNS_11char_traitsIcEENS_9allocatorIcEEEEEdeB8ue170006Ev, symObjAddr: 0xD68, symBinAddr: 0x1000014B8, symSize: 0x18 }
  - { offsetInCU: 0x135CE, offset: 0x135CE, size: 0x8, addend: 0x0, symName: __ZNSt3__112basic_stringIcNS_11char_traitsIcEENS_9allocatorIcEEE5beginB8ue170006Ev, symObjAddr: 0xDBC, symBinAddr: 0x10000150C, symSize: 0x4C }
  - { offsetInCU: 0x135F4, offset: 0x135F4, size: 0x8, addend: 0x0, symName: __ZNSt3__112basic_stringIcNS_11char_traitsIcEENS_9allocatorIcEEE3endB8ue170006Ev, symObjAddr: 0xE08, symBinAddr: 0x100001558, symSize: 0x54 }
  - { offsetInCU: 0x1361A, offset: 0x1361A, size: 0x8, addend: 0x0, symName: __ZNSt3__113unordered_mapINS_12basic_stringIcNS_11char_traitsIcEENS_9allocatorIcEEEENS_6vectorIS6_NS4_IS6_EEEENS_4hashIS6_EENS_8equal_toIS6_EENS4_INS_4pairIKS6_S9_EEEEEixERSF_, symObjAddr: 0xE5C, symBinAddr: 0x1000015AC, symSize: 0x80 }
  - { offsetInCU: 0x13651, offset: 0x13651, size: 0x8, addend: 0x0, symName: __ZNSt3__16vectorINS_12basic_stringIcNS_11char_traitsIcEENS_9allocatorIcEEEENS4_IS6_EEE9push_backB8ue170006ERKS6_, symObjAddr: 0xEDC, symBinAddr: 0x10000162C, symSize: 0x6C }
  - { offsetInCU: 0x13688, offset: 0x13688, size: 0x8, addend: 0x0, symName: __ZNSt3__111__wrap_iterIPNS_12basic_stringIcNS_11char_traitsIcEENS_9allocatorIcEEEEEppB8ue170006Ev, symObjAddr: 0xF48, symBinAddr: 0x100001698, symSize: 0x20 }
  - { offsetInCU: 0x136AE, offset: 0x136AE, size: 0x8, addend: 0x0, symName: __ZNSt3__16vectorINS0_INS_12basic_stringIcNS_11char_traitsIcEENS_9allocatorIcEEEENS4_IS6_EEEENS4_IS8_EEEC1B8ue170006Ev, symObjAddr: 0xF68, symBinAddr: 0x1000016B8, symSize: 0x2C }
  - { offsetInCU: 0x136D8, offset: 0x136D8, size: 0x8, addend: 0x0, symName: __ZNSt3__113unordered_mapINS_12basic_stringIcNS_11char_traitsIcEENS_9allocatorIcEEEENS_6vectorIS6_NS4_IS6_EEEENS_4hashIS6_EENS_8equal_toIS6_EENS4_INS_4pairIKS6_S9_EEEEE5beginB8ue170006Ev, symObjAddr: 0xF94, symBinAddr: 0x1000016E4, symSize: 0x38 }
  - { offsetInCU: 0x136FE, offset: 0x136FE, size: 0x8, addend: 0x0, symName: __ZNSt3__113unordered_mapINS_12basic_stringIcNS_11char_traitsIcEENS_9allocatorIcEEEENS_6vectorIS6_NS4_IS6_EEEENS_4hashIS6_EENS_8equal_toIS6_EENS4_INS_4pairIKS6_S9_EEEEE3endB8ue170006Ev, symObjAddr: 0xFCC, symBinAddr: 0x10000171C, symSize: 0x38 }
  - { offsetInCU: 0x13724, offset: 0x13724, size: 0x8, addend: 0x0, symName: __ZNKSt3__119__hash_map_iteratorINS_15__hash_iteratorIPNS_11__hash_nodeINS_17__hash_value_typeINS_12basic_stringIcNS_11char_traitsIcEENS_9allocatorIcEEEENS_6vectorIS9_NS7_IS9_EEEEEEPvEEEEEdeB8ue170006Ev, symObjAddr: 0x1034, symBinAddr: 0x100001784, symSize: 0x28 }
  - { offsetInCU: 0x1374A, offset: 0x1374A, size: 0x8, addend: 0x0, symName: __ZNSt3__16vectorINS0_INS_12basic_stringIcNS_11char_traitsIcEENS_9allocatorIcEEEENS4_IS6_EEEENS4_IS8_EEE9push_backB8ue170006ERKS8_, symObjAddr: 0x105C, symBinAddr: 0x1000017AC, symSize: 0x6C }
  - { offsetInCU: 0x13781, offset: 0x13781, size: 0x8, addend: 0x0, symName: __ZNSt3__119__hash_map_iteratorINS_15__hash_iteratorIPNS_11__hash_nodeINS_17__hash_value_typeINS_12basic_stringIcNS_11char_traitsIcEENS_9allocatorIcEEEENS_6vectorIS9_NS7_IS9_EEEEEEPvEEEEEppB8ue170006Ev, symObjAddr: 0x10C8, symBinAddr: 0x100001818, symSize: 0x2C }
  - { offsetInCU: 0x137A7, offset: 0x137A7, size: 0x8, addend: 0x0, symName: __ZNSt3__113unordered_mapINS_12basic_stringIcNS_11char_traitsIcEENS_9allocatorIcEEEENS_6vectorIS6_NS4_IS6_EEEENS_4hashIS6_EENS_8equal_toIS6_EENS4_INS_4pairIKS6_S9_EEEEED1B8ue170006Ev, symObjAddr: 0x10F4, symBinAddr: 0x100001844, symSize: 0x2C }
  - { offsetInCU: 0x137D1, offset: 0x137D1, size: 0x8, addend: 0x0, symName: __ZNSt3__113unordered_mapINS_12basic_stringIcNS_11char_traitsIcEENS_9allocatorIcEEEENS_6vectorIS6_NS4_IS6_EEEENS_4hashIS6_EENS_8equal_toIS6_EENS4_INS_4pairIKS6_S9_EEEEEC2B8ue170006Ev, symObjAddr: 0x1120, symBinAddr: 0x100001870, symSize: 0x2C }
  - { offsetInCU: 0x137FB, offset: 0x137FB, size: 0x8, addend: 0x0, symName: __ZNSt3__112__hash_tableINS_17__hash_value_typeINS_12basic_stringIcNS_11char_traitsIcEENS_9allocatorIcEEEENS_6vectorIS7_NS5_IS7_EEEEEENS_22__unordered_map_hasherIS7_SB_NS_4hashIS7_EENS_8equal_toIS7_EELb1EEENS_21__unordered_map_equalIS7_SB_SG_SE_Lb1EEENS5_ISB_EEEC1Ev, symObjAddr: 0x114C, symBinAddr: 0x10000189C, symSize: 0x2C }
  - { offsetInCU: 0x13827, offset: 0x13827, size: 0x8, addend: 0x0, symName: __ZNSt3__112__hash_tableINS_17__hash_value_typeINS_12basic_stringIcNS_11char_traitsIcEENS_9allocatorIcEEEENS_6vectorIS7_NS5_IS7_EEEEEENS_22__unordered_map_hasherIS7_SB_NS_4hashIS7_EENS_8equal_toIS7_EELb1EEENS_21__unordered_map_equalIS7_SB_SG_SE_Lb1EEENS5_ISB_EEEC2Ev, symObjAddr: 0x1178, symBinAddr: 0x1000018C8, symSize: 0x7C }
  - { offsetInCU: 0x13853, offset: 0x13853, size: 0x8, addend: 0x0, symName: __ZNSt3__110unique_ptrIA_PNS_16__hash_node_baseIPNS_11__hash_nodeINS_17__hash_value_typeINS_12basic_stringIcNS_11char_traitsIcEENS_9allocatorIcEEEENS_6vectorIS9_NS7_IS9_EEEEEEPvEEEENS_25__bucket_list_deallocatorINS7_ISI_EEEEEC1B8ue170006ILb1EvEEv, symObjAddr: 0x11F4, symBinAddr: 0x100001944, symSize: 0x2C }
  - { offsetInCU: 0x13888, offset: 0x13888, size: 0x8, addend: 0x0, symName: __ZNSt3__117__compressed_pairINS_16__hash_node_baseIPNS_11__hash_nodeINS_17__hash_value_typeINS_12basic_stringIcNS_11char_traitsIcEENS_9allocatorIcEEEENS_6vectorIS9_NS7_IS9_EEEEEEPvEEEENS7_ISF_EEEC1B8ue170006ILb1EvEEv, symObjAddr: 0x1220, symBinAddr: 0x100001970, symSize: 0x2C }
  - { offsetInCU: 0x138C9, offset: 0x138C9, size: 0x8, addend: 0x0, symName: __ZNSt3__117__compressed_pairImNS_22__unordered_map_hasherINS_12basic_stringIcNS_11char_traitsIcEENS_9allocatorIcEEEENS_17__hash_value_typeIS7_NS_6vectorIS7_NS5_IS7_EEEEEENS_4hashIS7_EENS_8equal_toIS7_EELb1EEEEC1B8ue170006IiNS_18__default_init_tagEEEOT_OT0_, symObjAddr: 0x1258, symBinAddr: 0x1000019A8, symSize: 0x3C }
  - { offsetInCU: 0x13927, offset: 0x13927, size: 0x8, addend: 0x0, symName: __ZNSt3__117__compressed_pairIfNS_21__unordered_map_equalINS_12basic_stringIcNS_11char_traitsIcEENS_9allocatorIcEEEENS_17__hash_value_typeIS7_NS_6vectorIS7_NS5_IS7_EEEEEENS_8equal_toIS7_EENS_4hashIS7_EELb1EEEEC1B8ue170006IfNS_18__default_init_tagEEEOT_OT0_, symObjAddr: 0x1294, symBinAddr: 0x1000019E4, symSize: 0x3C }
  - { offsetInCU: 0x1397F, offset: 0x1397F, size: 0x8, addend: 0x0, symName: __ZNSt3__110unique_ptrIA_PNS_16__hash_node_baseIPNS_11__hash_nodeINS_17__hash_value_typeINS_12basic_stringIcNS_11char_traitsIcEENS_9allocatorIcEEEENS_6vectorIS9_NS7_IS9_EEEEEEPvEEEENS_25__bucket_list_deallocatorINS7_ISI_EEEEEC2B8ue170006ILb1EvEEv, symObjAddr: 0x12D0, symBinAddr: 0x100001A20, symSize: 0x3C }
  - { offsetInCU: 0x139BA, offset: 0x139BA, size: 0x8, addend: 0x0, symName: __ZNSt3__117__compressed_pairIPPNS_16__hash_node_baseIPNS_11__hash_nodeINS_17__hash_value_typeINS_12basic_stringIcNS_11char_traitsIcEENS_9allocatorIcEEEENS_6vectorIS9_NS7_IS9_EEEEEEPvEEEENS_25__bucket_list_deallocatorINS7_ISI_EEEEEC1B8ue170006INS_16__value_init_tagESP_EEOT_OT0_, symObjAddr: 0x130C, symBinAddr: 0x100001A5C, symSize: 0x3C }
  - { offsetInCU: 0x13A12, offset: 0x13A12, size: 0x8, addend: 0x0, symName: __ZNSt3__117__compressed_pairIPPNS_16__hash_node_baseIPNS_11__hash_nodeINS_17__hash_value_typeINS_12basic_stringIcNS_11char_traitsIcEENS_9allocatorIcEEEENS_6vectorIS9_NS7_IS9_EEEEEEPvEEEENS_25__bucket_list_deallocatorINS7_ISI_EEEEEC2B8ue170006INS_16__value_init_tagESP_EEOT_OT0_, symObjAddr: 0x1348, symBinAddr: 0x100001A98, symSize: 0x40 }
  - { offsetInCU: 0x13A6A, offset: 0x13A6A, size: 0x8, addend: 0x0, symName: __ZNSt3__122__compressed_pair_elemIPPNS_16__hash_node_baseIPNS_11__hash_nodeINS_17__hash_value_typeINS_12basic_stringIcNS_11char_traitsIcEENS_9allocatorIcEEEENS_6vectorIS9_NS7_IS9_EEEEEEPvEEEELi0ELb0EEC2B8ue170006ENS_16__value_init_tagE, symObjAddr: 0x1388, symBinAddr: 0x100001AD8, symSize: 0x18 }
  - { offsetInCU: 0x13A9E, offset: 0x13A9E, size: 0x8, addend: 0x0, symName: __ZNSt3__122__compressed_pair_elemINS_25__bucket_list_deallocatorINS_9allocatorIPNS_16__hash_node_baseIPNS_11__hash_nodeINS_17__hash_value_typeINS_12basic_stringIcNS_11char_traitsIcEENS2_IcEEEENS_6vectorISA_NS2_ISA_EEEEEEPvEEEEEEEELi1ELb0EEC2B8ue170006ENS_16__value_init_tagE, symObjAddr: 0x13A0, symBinAddr: 0x100001AF0, symSize: 0x2C }
  - { offsetInCU: 0x13AD2, offset: 0x13AD2, size: 0x8, addend: 0x0, symName: __ZNSt3__125__bucket_list_deallocatorINS_9allocatorIPNS_16__hash_node_baseIPNS_11__hash_nodeINS_17__hash_value_typeINS_12basic_stringIcNS_11char_traitsIcEENS1_IcEEEENS_6vectorIS9_NS1_IS9_EEEEEEPvEEEEEEEC1B8ue170006Ev, symObjAddr: 0x13CC, symBinAddr: 0x100001B1C, symSize: 0x2C }
  - { offsetInCU: 0x13AFC, offset: 0x13AFC, size: 0x8, addend: 0x0, symName: __ZNSt3__125__bucket_list_deallocatorINS_9allocatorIPNS_16__hash_node_baseIPNS_11__hash_nodeINS_17__hash_value_typeINS_12basic_stringIcNS_11char_traitsIcEENS1_IcEEEENS_6vectorIS9_NS1_IS9_EEEEEEPvEEEEEEEC2B8ue170006Ev, symObjAddr: 0x13F8, symBinAddr: 0x100001B48, symSize: 0x40 }
  - { offsetInCU: 0x13B26, offset: 0x13B26, size: 0x8, addend: 0x0, symName: __ZNSt3__117__compressed_pairImNS_9allocatorIPNS_16__hash_node_baseIPNS_11__hash_nodeINS_17__hash_value_typeINS_12basic_stringIcNS_11char_traitsIcEENS1_IcEEEENS_6vectorIS9_NS1_IS9_EEEEEEPvEEEEEEEC1B8ue170006IiNS_18__default_init_tagEEEOT_OT0_, symObjAddr: 0x1438, symBinAddr: 0x100001B88, symSize: 0x3C }
  - { offsetInCU: 0x13B7E, offset: 0x13B7E, size: 0x8, addend: 0x0, symName: __ZNSt3__117__compressed_pairImNS_9allocatorIPNS_16__hash_node_baseIPNS_11__hash_nodeINS_17__hash_value_typeINS_12basic_stringIcNS_11char_traitsIcEENS1_IcEEEENS_6vectorIS9_NS1_IS9_EEEEEEPvEEEEEEEC2B8ue170006IiNS_18__default_init_tagEEEOT_OT0_, symObjAddr: 0x1474, symBinAddr: 0x100001BC4, symSize: 0x40 }
  - { offsetInCU: 0x13BD6, offset: 0x13BD6, size: 0x8, addend: 0x0, symName: __ZNSt3__122__compressed_pair_elemImLi0ELb0EEC2B8ue170006IivEEOT_, symObjAddr: 0x14B4, symBinAddr: 0x100001C04, symSize: 0x24 }
  - { offsetInCU: 0x13C18, offset: 0x13C18, size: 0x8, addend: 0x0, symName: __ZNSt3__122__compressed_pair_elemINS_9allocatorIPNS_16__hash_node_baseIPNS_11__hash_nodeINS_17__hash_value_typeINS_12basic_stringIcNS_11char_traitsIcEENS1_IcEEEENS_6vectorIS9_NS1_IS9_EEEEEEPvEEEEEELi1ELb1EEC2B8ue170006ENS_18__default_init_tagE, symObjAddr: 0x14D8, symBinAddr: 0x100001C28, symSize: 0x2C }
  - { offsetInCU: 0x13C4C, offset: 0x13C4C, size: 0x8, addend: 0x0, symName: __ZNSt3__19allocatorIPNS_16__hash_node_baseIPNS_11__hash_nodeINS_17__hash_value_typeINS_12basic_stringIcNS_11char_traitsIcEENS0_IcEEEENS_6vectorIS8_NS0_IS8_EEEEEEPvEEEEEC2B8ue170006Ev, symObjAddr: 0x1504, symBinAddr: 0x100001C54, symSize: 0x2C }
  - { offsetInCU: 0x13C76, offset: 0x13C76, size: 0x8, addend: 0x0, symName: __ZNSt3__116__non_trivial_ifILb1ENS_9allocatorIPNS_16__hash_node_baseIPNS_11__hash_nodeINS_17__hash_value_typeINS_12basic_stringIcNS_11char_traitsIcEENS1_IcEEEENS_6vectorIS9_NS1_IS9_EEEEEEPvEEEEEEEC2B8ue170006Ev, symObjAddr: 0x1530, symBinAddr: 0x100001C80, symSize: 0x14 }
  - { offsetInCU: 0x13CA0, offset: 0x13CA0, size: 0x8, addend: 0x0, symName: __ZNSt3__117__compressed_pairINS_16__hash_node_baseIPNS_11__hash_nodeINS_17__hash_value_typeINS_12basic_stringIcNS_11char_traitsIcEENS_9allocatorIcEEEENS_6vectorIS9_NS7_IS9_EEEEEEPvEEEENS7_ISF_EEEC2B8ue170006ILb1EvEEv, symObjAddr: 0x1544, symBinAddr: 0x100001C94, symSize: 0x34 }
  - { offsetInCU: 0x13CD5, offset: 0x13CD5, size: 0x8, addend: 0x0, symName: __ZNSt3__122__compressed_pair_elemINS_16__hash_node_baseIPNS_11__hash_nodeINS_17__hash_value_typeINS_12basic_stringIcNS_11char_traitsIcEENS_9allocatorIcEEEENS_6vectorIS9_NS7_IS9_EEEEEEPvEEEELi0ELb0EEC2B8ue170006ENS_16__value_init_tagE, symObjAddr: 0x1578, symBinAddr: 0x100001CC8, symSize: 0x2C }
  - { offsetInCU: 0x13D09, offset: 0x13D09, size: 0x8, addend: 0x0, symName: __ZNSt3__122__compressed_pair_elemINS_9allocatorINS_11__hash_nodeINS_17__hash_value_typeINS_12basic_stringIcNS_11char_traitsIcEENS1_IcEEEENS_6vectorIS8_NS1_IS8_EEEEEEPvEEEELi1ELb1EEC2B8ue170006ENS_16__value_init_tagE, symObjAddr: 0x15A4, symBinAddr: 0x100001CF4, symSize: 0x2C }
  - { offsetInCU: 0x13D3D, offset: 0x13D3D, size: 0x8, addend: 0x0, symName: __ZNSt3__116__hash_node_baseIPNS_11__hash_nodeINS_17__hash_value_typeINS_12basic_stringIcNS_11char_traitsIcEENS_9allocatorIcEEEENS_6vectorIS8_NS6_IS8_EEEEEEPvEEEC1B8ue170006Ev, symObjAddr: 0x15D0, symBinAddr: 0x100001D20, symSize: 0x2C }
  - { offsetInCU: 0x13D67, offset: 0x13D67, size: 0x8, addend: 0x0, symName: __ZNSt3__116__hash_node_baseIPNS_11__hash_nodeINS_17__hash_value_typeINS_12basic_stringIcNS_11char_traitsIcEENS_9allocatorIcEEEENS_6vectorIS8_NS6_IS8_EEEEEEPvEEEC2B8ue170006Ev, symObjAddr: 0x15FC, symBinAddr: 0x100001D4C, symSize: 0x18 }
  - { offsetInCU: 0x13D91, offset: 0x13D91, size: 0x8, addend: 0x0, symName: __ZNSt3__19allocatorINS_11__hash_nodeINS_17__hash_value_typeINS_12basic_stringIcNS_11char_traitsIcEENS0_IcEEEENS_6vectorIS7_NS0_IS7_EEEEEEPvEEEC2B8ue170006Ev, symObjAddr: 0x1614, symBinAddr: 0x100001D64, symSize: 0x2C }
  - { offsetInCU: 0x13DBB, offset: 0x13DBB, size: 0x8, addend: 0x0, symName: __ZNSt3__116__non_trivial_ifILb1ENS_9allocatorINS_11__hash_nodeINS_17__hash_value_typeINS_12basic_stringIcNS_11char_traitsIcEENS1_IcEEEENS_6vectorIS8_NS1_IS8_EEEEEEPvEEEEEC2B8ue170006Ev, symObjAddr: 0x1640, symBinAddr: 0x100001D90, symSize: 0x14 }
  - { offsetInCU: 0x13DE5, offset: 0x13DE5, size: 0x8, addend: 0x0, symName: __ZNSt3__117__compressed_pairImNS_22__unordered_map_hasherINS_12basic_stringIcNS_11char_traitsIcEENS_9allocatorIcEEEENS_17__hash_value_typeIS7_NS_6vectorIS7_NS5_IS7_EEEEEENS_4hashIS7_EENS_8equal_toIS7_EELb1EEEEC2B8ue170006IiNS_18__default_init_tagEEEOT_OT0_, symObjAddr: 0x1654, symBinAddr: 0x100001DA4, symSize: 0x40 }
  - { offsetInCU: 0x13E3D, offset: 0x13E3D, size: 0x8, addend: 0x0, symName: __ZNSt3__122__compressed_pair_elemINS_22__unordered_map_hasherINS_12basic_stringIcNS_11char_traitsIcEENS_9allocatorIcEEEENS_17__hash_value_typeIS7_NS_6vectorIS7_NS5_IS7_EEEEEENS_4hashIS7_EENS_8equal_toIS7_EELb1EEELi1ELb1EEC2B8ue170006ENS_18__default_init_tagE, symObjAddr: 0x1694, symBinAddr: 0x100001DE4, symSize: 0x2C }
  - { offsetInCU: 0x13E71, offset: 0x13E71, size: 0x8, addend: 0x0, symName: __ZNSt3__122__unordered_map_hasherINS_12basic_stringIcNS_11char_traitsIcEENS_9allocatorIcEEEENS_17__hash_value_typeIS6_NS_6vectorIS6_NS4_IS6_EEEEEENS_4hashIS6_EENS_8equal_toIS6_EELb1EEC2B8ue170006Ev, symObjAddr: 0x16C0, symBinAddr: 0x100001E10, symSize: 0x14 }
  - { offsetInCU: 0x13E9B, offset: 0x13E9B, size: 0x8, addend: 0x0, symName: __ZNSt3__117__compressed_pairIfNS_21__unordered_map_equalINS_12basic_stringIcNS_11char_traitsIcEENS_9allocatorIcEEEENS_17__hash_value_typeIS7_NS_6vectorIS7_NS5_IS7_EEEEEENS_8equal_toIS7_EENS_4hashIS7_EELb1EEEEC2B8ue170006IfNS_18__default_init_tagEEEOT_OT0_, symObjAddr: 0x16D4, symBinAddr: 0x100001E24, symSize: 0x40 }
  - { offsetInCU: 0x13EF3, offset: 0x13EF3, size: 0x8, addend: 0x0, symName: __ZNSt3__122__compressed_pair_elemIfLi0ELb0EEC2B8ue170006IfvEEOT_, symObjAddr: 0x1714, symBinAddr: 0x100001E64, symSize: 0x24 }
  - { offsetInCU: 0x13F35, offset: 0x13F35, size: 0x8, addend: 0x0, symName: __ZNSt3__122__compressed_pair_elemINS_21__unordered_map_equalINS_12basic_stringIcNS_11char_traitsIcEENS_9allocatorIcEEEENS_17__hash_value_typeIS7_NS_6vectorIS7_NS5_IS7_EEEEEENS_8equal_toIS7_EENS_4hashIS7_EELb1EEELi1ELb1EEC2B8ue170006ENS_18__default_init_tagE, symObjAddr: 0x1738, symBinAddr: 0x100001E88, symSize: 0x2C }
  - { offsetInCU: 0x13F69, offset: 0x13F69, size: 0x8, addend: 0x0, symName: __ZNSt3__121__unordered_map_equalINS_12basic_stringIcNS_11char_traitsIcEENS_9allocatorIcEEEENS_17__hash_value_typeIS6_NS_6vectorIS6_NS4_IS6_EEEEEENS_8equal_toIS6_EENS_4hashIS6_EELb1EEC2B8ue170006Ev, symObjAddr: 0x1764, symBinAddr: 0x100001EB4, symSize: 0x14 }
  - { offsetInCU: 0x13F93, offset: 0x13F93, size: 0x8, addend: 0x0, symName: __ZNSt3__16vectorINS_12basic_stringIcNS_11char_traitsIcEENS_9allocatorIcEEEENS4_IS6_EEE11__make_iterB8ue170006EPS6_, symObjAddr: 0x1778, symBinAddr: 0x100001EC8, symSize: 0x30 }
  - { offsetInCU: 0x13FC8, offset: 0x13FC8, size: 0x8, addend: 0x0, symName: __ZNSt3__111__wrap_iterIPNS_12basic_stringIcNS_11char_traitsIcEENS_9allocatorIcEEEEEC1B8ue170006ES7_, symObjAddr: 0x17A8, symBinAddr: 0x100001EF8, symSize: 0x34 }
  - { offsetInCU: 0x14000, offset: 0x14000, size: 0x8, addend: 0x0, symName: __ZNSt3__111__wrap_iterIPNS_12basic_stringIcNS_11char_traitsIcEENS_9allocatorIcEEEEEC2B8ue170006ES7_, symObjAddr: 0x17DC, symBinAddr: 0x100001F2C, symSize: 0x20 }
  - { offsetInCU: 0x14038, offset: 0x14038, size: 0x8, addend: 0x0, symName: __ZNKSt3__111__wrap_iterIPNS_12basic_stringIcNS_11char_traitsIcEENS_9allocatorIcEEEEE4baseB8ue170006Ev, symObjAddr: 0x1844, symBinAddr: 0x100001F94, symSize: 0x18 }
  - { offsetInCU: 0x1405E, offset: 0x1405E, size: 0x8, addend: 0x0, symName: __ZNSt3__118__unwrap_iter_implINS_11__wrap_iterIPcEELb1EE8__unwrapB8ue170006ES3_, symObjAddr: 0x19D0, symBinAddr: 0x100002120, symSize: 0x28 }
  - { offsetInCU: 0x1408C, offset: 0x1408C, size: 0x8, addend: 0x0, symName: __ZNSt3__119__to_address_helperINS_11__wrap_iterIPcEEvE6__callB8ue170006ERKS3_, symObjAddr: 0x1A1C, symBinAddr: 0x10000216C, symSize: 0x30 }
  - { offsetInCU: 0x140AF, offset: 0x140AF, size: 0x8, addend: 0x0, symName: __ZNSt3__114pointer_traitsINS_11__wrap_iterIPcEEE10to_addressB8ue170006ES3_, symObjAddr: 0x1A4C, symBinAddr: 0x10000219C, symSize: 0x2C }
  - { offsetInCU: 0x140D2, offset: 0x140D2, size: 0x8, addend: 0x0, symName: __ZNKSt3__111__wrap_iterIPcE4baseB8ue170006Ev, symObjAddr: 0x1A8C, symBinAddr: 0x1000021DC, symSize: 0x18 }
  - { offsetInCU: 0x140F8, offset: 0x140F8, size: 0x8, addend: 0x0, symName: __ZNSt3__112basic_stringIcNS_11char_traitsIcEENS_9allocatorIcEEE15__make_iteratorB8ue170006EPc, symObjAddr: 0x1AA4, symBinAddr: 0x1000021F4, symSize: 0x30 }
  - { offsetInCU: 0x1412D, offset: 0x1412D, size: 0x8, addend: 0x0, symName: __ZNSt3__112basic_stringIcNS_11char_traitsIcEENS_9allocatorIcEEE13__get_pointerB8ue170006Ev, symObjAddr: 0x1AD4, symBinAddr: 0x100002224, symSize: 0x54 }
  - { offsetInCU: 0x14153, offset: 0x14153, size: 0x8, addend: 0x0, symName: __ZNSt3__111__wrap_iterIPcEC1B8ue170006ES1_, symObjAddr: 0x1B28, symBinAddr: 0x100002278, symSize: 0x34 }
  - { offsetInCU: 0x1418B, offset: 0x1418B, size: 0x8, addend: 0x0, symName: __ZNSt3__111__wrap_iterIPcEC2B8ue170006ES1_, symObjAddr: 0x1B5C, symBinAddr: 0x1000022AC, symSize: 0x20 }
  - { offsetInCU: 0x141C3, offset: 0x141C3, size: 0x8, addend: 0x0, symName: __ZNKSt3__112basic_stringIcNS_11char_traitsIcEENS_9allocatorIcEEE9__is_longB8ue170006Ev, symObjAddr: 0x1B7C, symBinAddr: 0x1000022CC, symSize: 0x38 }
  - { offsetInCU: 0x141E9, offset: 0x141E9, size: 0x8, addend: 0x0, symName: __ZNSt3__112basic_stringIcNS_11char_traitsIcEENS_9allocatorIcEEE18__get_long_pointerB8ue170006Ev, symObjAddr: 0x1BB4, symBinAddr: 0x100002304, symSize: 0x28 }
  - { offsetInCU: 0x1420F, offset: 0x1420F, size: 0x8, addend: 0x0, symName: __ZNSt3__112basic_stringIcNS_11char_traitsIcEENS_9allocatorIcEEE19__get_short_pointerB8ue170006Ev, symObjAddr: 0x1BDC, symBinAddr: 0x10000232C, symSize: 0x28 }
  - { offsetInCU: 0x14235, offset: 0x14235, size: 0x8, addend: 0x0, symName: __ZNKSt3__117__compressed_pairINS_12basic_stringIcNS_11char_traitsIcEENS_9allocatorIcEEE5__repES5_E5firstB8ue170006Ev, symObjAddr: 0x1C04, symBinAddr: 0x100002354, symSize: 0x24 }
  - { offsetInCU: 0x1425B, offset: 0x1425B, size: 0x8, addend: 0x0, symName: __ZNKSt3__122__compressed_pair_elemINS_12basic_stringIcNS_11char_traitsIcEENS_9allocatorIcEEE5__repELi0ELb0EE5__getB8ue170006Ev, symObjAddr: 0x1C28, symBinAddr: 0x100002378, symSize: 0x14 }
  - { offsetInCU: 0x14281, offset: 0x14281, size: 0x8, addend: 0x0, symName: __ZNSt3__117__compressed_pairINS_12basic_stringIcNS_11char_traitsIcEENS_9allocatorIcEEE5__repES5_E5firstB8ue170006Ev, symObjAddr: 0x1C3C, symBinAddr: 0x10000238C, symSize: 0x24 }
  - { offsetInCU: 0x142A7, offset: 0x142A7, size: 0x8, addend: 0x0, symName: __ZNSt3__122__compressed_pair_elemINS_12basic_stringIcNS_11char_traitsIcEENS_9allocatorIcEEE5__repELi0ELb0EE5__getB8ue170006Ev, symObjAddr: 0x1C60, symBinAddr: 0x1000023B0, symSize: 0x14 }
  - { offsetInCU: 0x142CD, offset: 0x142CD, size: 0x8, addend: 0x0, symName: __ZNSt3__114pointer_traitsIPcE10pointer_toB8ue170006ERc, symObjAddr: 0x1C74, symBinAddr: 0x1000023C4, symSize: 0x14 }
  - { offsetInCU: 0x142F0, offset: 0x142F0, size: 0x8, addend: 0x0, symName: __ZNKSt3__112basic_stringIcNS_11char_traitsIcEENS_9allocatorIcEEE4sizeB8ue170006Ev, symObjAddr: 0x1C88, symBinAddr: 0x1000023D8, symSize: 0x54 }
  - { offsetInCU: 0x14316, offset: 0x14316, size: 0x8, addend: 0x0, symName: __ZNKSt3__112basic_stringIcNS_11char_traitsIcEENS_9allocatorIcEEE15__get_long_sizeB8ue170006Ev, symObjAddr: 0x1CDC, symBinAddr: 0x10000242C, symSize: 0x28 }
  - { offsetInCU: 0x1433C, offset: 0x1433C, size: 0x8, addend: 0x0, symName: __ZNKSt3__112basic_stringIcNS_11char_traitsIcEENS_9allocatorIcEEE16__get_short_sizeB8ue170006Ev, symObjAddr: 0x1D04, symBinAddr: 0x100002454, symSize: 0x34 }
  - { offsetInCU: 0x14379, offset: 0x14379, size: 0x8, addend: 0x0, symName: __ZNSt3__112__hash_tableINS_17__hash_value_typeINS_12basic_stringIcNS_11char_traitsIcEENS_9allocatorIcEEEENS_6vectorIS7_NS5_IS7_EEEEEENS_22__unordered_map_hasherIS7_SB_NS_4hashIS7_EENS_8equal_toIS7_EELb1EEENS_21__unordered_map_equalIS7_SB_SG_SE_Lb1EEENS5_ISB_EEE25__emplace_unique_key_argsIS7_JRKNS_21piecewise_construct_tENS_5tupleIJRKS7_EEENSQ_IJEEEEEENS_4pairINS_15__hash_iteratorIPNS_11__hash_nodeISB_PvEEEEbEERKT_DpOT0_, symObjAddr: 0x1D38, symBinAddr: 0x100002488, symSize: 0x4E8 }
  - { offsetInCU: 0x14483, offset: 0x14483, size: 0x8, addend: 0x0, symName: __ZNKSt3__115__hash_iteratorIPNS_11__hash_nodeINS_17__hash_value_typeINS_12basic_stringIcNS_11char_traitsIcEENS_9allocatorIcEEEENS_6vectorIS8_NS6_IS8_EEEEEEPvEEEptB8ue170006Ev, symObjAddr: 0x2250, symBinAddr: 0x1000029A0, symSize: 0x30 }
  - { offsetInCU: 0x144A9, offset: 0x144A9, size: 0x8, addend: 0x0, symName: __ZNSt3__117__hash_value_typeINS_12basic_stringIcNS_11char_traitsIcEENS_9allocatorIcEEEENS_6vectorIS6_NS4_IS6_EEEEE11__get_valueB8ue170006Ev, symObjAddr: 0x2280, symBinAddr: 0x1000029D0, symSize: 0x24 }
  - { offsetInCU: 0x144CF, offset: 0x144CF, size: 0x8, addend: 0x0, symName: __ZNSt3__112__hash_tableINS_17__hash_value_typeINS_12basic_stringIcNS_11char_traitsIcEENS_9allocatorIcEEEENS_6vectorIS7_NS5_IS7_EEEEEENS_22__unordered_map_hasherIS7_SB_NS_4hashIS7_EENS_8equal_toIS7_EELb1EEENS_21__unordered_map_equalIS7_SB_SG_SE_Lb1EEENS5_ISB_EEE13hash_functionB8ue170006Ev, symObjAddr: 0x22A4, symBinAddr: 0x1000029F4, symSize: 0x28 }
  - { offsetInCU: 0x144F5, offset: 0x144F5, size: 0x8, addend: 0x0, symName: __ZNKSt3__122__unordered_map_hasherINS_12basic_stringIcNS_11char_traitsIcEENS_9allocatorIcEEEENS_17__hash_value_typeIS6_NS_6vectorIS6_NS4_IS6_EEEEEENS_4hashIS6_EENS_8equal_toIS6_EELb1EEclB8ue170006ERKS6_, symObjAddr: 0x22CC, symBinAddr: 0x100002A1C, symSize: 0x2C }
  - { offsetInCU: 0x1452A, offset: 0x1452A, size: 0x8, addend: 0x0, symName: __ZNKSt3__112__hash_tableINS_17__hash_value_typeINS_12basic_stringIcNS_11char_traitsIcEENS_9allocatorIcEEEENS_6vectorIS7_NS5_IS7_EEEEEENS_22__unordered_map_hasherIS7_SB_NS_4hashIS7_EENS_8equal_toIS7_EELb1EEENS_21__unordered_map_equalIS7_SB_SG_SE_Lb1EEENS5_ISB_EEE12bucket_countB8ue170006Ev, symObjAddr: 0x22F8, symBinAddr: 0x100002A48, symSize: 0x28 }
  - { offsetInCU: 0x14550, offset: 0x14550, size: 0x8, addend: 0x0, symName: __ZNKSt3__110unique_ptrIA_PNS_16__hash_node_baseIPNS_11__hash_nodeINS_17__hash_value_typeINS_12basic_stringIcNS_11char_traitsIcEENS_9allocatorIcEEEENS_6vectorIS9_NS7_IS9_EEEEEEPvEEEENS_25__bucket_list_deallocatorINS7_ISI_EEEEEixB8ue170006Em, symObjAddr: 0x23B8, symBinAddr: 0x100002B08, symSize: 0x34 }
  - { offsetInCU: 0x14585, offset: 0x14585, size: 0x8, addend: 0x0, symName: __ZNKSt3__116__hash_node_baseIPNS_11__hash_nodeINS_17__hash_value_typeINS_12basic_stringIcNS_11char_traitsIcEENS_9allocatorIcEEEENS_6vectorIS8_NS6_IS8_EEEEEEPvEEE6__hashB8ue170006Ev, symObjAddr: 0x23EC, symBinAddr: 0x100002B3C, symSize: 0x18 }
  - { offsetInCU: 0x145AB, offset: 0x145AB, size: 0x8, addend: 0x0, symName: __ZNSt3__112__hash_tableINS_17__hash_value_typeINS_12basic_stringIcNS_11char_traitsIcEENS_9allocatorIcEEEENS_6vectorIS7_NS5_IS7_EEEEEENS_22__unordered_map_hasherIS7_SB_NS_4hashIS7_EENS_8equal_toIS7_EELb1EEENS_21__unordered_map_equalIS7_SB_SG_SE_Lb1EEENS5_ISB_EEE6key_eqB8ue170006Ev, symObjAddr: 0x2404, symBinAddr: 0x100002B54, symSize: 0x28 }
  - { offsetInCU: 0x145D1, offset: 0x145D1, size: 0x8, addend: 0x0, symName: __ZNKSt3__121__unordered_map_equalINS_12basic_stringIcNS_11char_traitsIcEENS_9allocatorIcEEEENS_17__hash_value_typeIS6_NS_6vectorIS6_NS4_IS6_EEEEEENS_8equal_toIS6_EENS_4hashIS6_EELb1EEclB8ue170006ERKSB_RKS6_, symObjAddr: 0x242C, symBinAddr: 0x100002B7C, symSize: 0x48 }
  - { offsetInCU: 0x14615, offset: 0x14615, size: 0x8, addend: 0x0, symName: __ZNSt3__116__hash_node_baseIPNS_11__hash_nodeINS_17__hash_value_typeINS_12basic_stringIcNS_11char_traitsIcEENS_9allocatorIcEEEENS_6vectorIS8_NS6_IS8_EEEEEEPvEEE8__upcastB8ue170006Ev, symObjAddr: 0x2474, symBinAddr: 0x100002BC4, symSize: 0x24 }
  - { offsetInCU: 0x1463B, offset: 0x1463B, size: 0x8, addend: 0x0, symName: __ZNSt3__112__hash_tableINS_17__hash_value_typeINS_12basic_stringIcNS_11char_traitsIcEENS_9allocatorIcEEEENS_6vectorIS7_NS5_IS7_EEEEEENS_22__unordered_map_hasherIS7_SB_NS_4hashIS7_EENS_8equal_toIS7_EELb1EEENS_21__unordered_map_equalIS7_SB_SG_SE_Lb1EEENS5_ISB_EEE21__construct_node_hashIRKNS_21piecewise_construct_tEJNS_5tupleIJRKS7_EEENSQ_IJEEEEEENS_10unique_ptrINS_11__hash_nodeISB_PvEENS_22__hash_node_destructorINS5_ISY_EEEEEEmOT_DpOT0_, symObjAddr: 0x2498, symBinAddr: 0x100002BE8, symSize: 0x150 }
  - { offsetInCU: 0x146D7, offset: 0x146D7, size: 0x8, addend: 0x0, symName: __ZNSt3__112__hash_tableINS_17__hash_value_typeINS_12basic_stringIcNS_11char_traitsIcEENS_9allocatorIcEEEENS_6vectorIS7_NS5_IS7_EEEEEENS_22__unordered_map_hasherIS7_SB_NS_4hashIS7_EENS_8equal_toIS7_EELb1EEENS_21__unordered_map_equalIS7_SB_SG_SE_Lb1EEENS5_ISB_EEE4sizeB8ue170006Ev, symObjAddr: 0x25E8, symBinAddr: 0x100002D38, symSize: 0x28 }
  - { offsetInCU: 0x146FD, offset: 0x146FD, size: 0x8, addend: 0x0, symName: __ZNSt3__112__hash_tableINS_17__hash_value_typeINS_12basic_stringIcNS_11char_traitsIcEENS_9allocatorIcEEEENS_6vectorIS7_NS5_IS7_EEEEEENS_22__unordered_map_hasherIS7_SB_NS_4hashIS7_EENS_8equal_toIS7_EELb1EEENS_21__unordered_map_equalIS7_SB_SG_SE_Lb1EEENS5_ISB_EEE15max_load_factorB8ue170006Ev, symObjAddr: 0x2610, symBinAddr: 0x100002D60, symSize: 0x28 }
  - { offsetInCU: 0x14723, offset: 0x14723, size: 0x8, addend: 0x0, symName: __ZNSt3__112__hash_tableINS_17__hash_value_typeINS_12basic_stringIcNS_11char_traitsIcEENS_9allocatorIcEEEENS_6vectorIS7_NS5_IS7_EEEEEENS_22__unordered_map_hasherIS7_SB_NS_4hashIS7_EENS_8equal_toIS7_EELb1EEENS_21__unordered_map_equalIS7_SB_SG_SE_Lb1EEENS5_ISB_EEE15__rehash_uniqueB8ue170006Em, symObjAddr: 0x2638, symBinAddr: 0x100002D88, symSize: 0x2C }
  - { offsetInCU: 0x14757, offset: 0x14757, size: 0x8, addend: 0x0, symName: __Z4ceilB8ue170006f, symObjAddr: 0x26E0, symBinAddr: 0x100002E30, symSize: 0x18 }
  - { offsetInCU: 0x14786, offset: 0x14786, size: 0x8, addend: 0x0, symName: __ZNSt3__117__compressed_pairINS_16__hash_node_baseIPNS_11__hash_nodeINS_17__hash_value_typeINS_12basic_stringIcNS_11char_traitsIcEENS_9allocatorIcEEEENS_6vectorIS9_NS7_IS9_EEEEEEPvEEEENS7_ISF_EEE5firstB8ue170006Ev, symObjAddr: 0x26F8, symBinAddr: 0x100002E48, symSize: 0x24 }
  - { offsetInCU: 0x147AC, offset: 0x147AC, size: 0x8, addend: 0x0, symName: __ZNSt3__116__hash_node_baseIPNS_11__hash_nodeINS_17__hash_value_typeINS_12basic_stringIcNS_11char_traitsIcEENS_9allocatorIcEEEENS_6vectorIS8_NS6_IS8_EEEEEEPvEEE5__ptrB8ue170006Ev, symObjAddr: 0x271C, symBinAddr: 0x100002E6C, symSize: 0x24 }
  - { offsetInCU: 0x147D2, offset: 0x147D2, size: 0x8, addend: 0x0, symName: __ZNKSt3__110unique_ptrINS_11__hash_nodeINS_17__hash_value_typeINS_12basic_stringIcNS_11char_traitsIcEENS_9allocatorIcEEEENS_6vectorIS8_NS6_IS8_EEEEEEPvEENS_22__hash_node_destructorINS6_ISE_EEEEEptB8ue170006Ev, symObjAddr: 0x2740, symBinAddr: 0x100002E90, symSize: 0x28 }
  - { offsetInCU: 0x147F8, offset: 0x147F8, size: 0x8, addend: 0x0, symName: __ZNKSt3__110unique_ptrINS_11__hash_nodeINS_17__hash_value_typeINS_12basic_stringIcNS_11char_traitsIcEENS_9allocatorIcEEEENS_6vectorIS8_NS6_IS8_EEEEEEPvEENS_22__hash_node_destructorINS6_ISE_EEEEE3getB8ue170006Ev, symObjAddr: 0x2768, symBinAddr: 0x100002EB8, symSize: 0x28 }
  - { offsetInCU: 0x1481E, offset: 0x1481E, size: 0x8, addend: 0x0, symName: __ZNSt3__110unique_ptrINS_11__hash_nodeINS_17__hash_value_typeINS_12basic_stringIcNS_11char_traitsIcEENS_9allocatorIcEEEENS_6vectorIS8_NS6_IS8_EEEEEEPvEENS_22__hash_node_destructorINS6_ISE_EEEEE7releaseB8ue170006Ev, symObjAddr: 0x2790, symBinAddr: 0x100002EE0, symSize: 0x44 }
  - { offsetInCU: 0x14853, offset: 0x14853, size: 0x8, addend: 0x0, symName: __ZNSt3__110unique_ptrINS_11__hash_nodeINS_17__hash_value_typeINS_12basic_stringIcNS_11char_traitsIcEENS_9allocatorIcEEEENS_6vectorIS8_NS6_IS8_EEEEEEPvEENS_22__hash_node_destructorINS6_ISE_EEEEED1B8ue170006Ev, symObjAddr: 0x27D4, symBinAddr: 0x100002F24, symSize: 0x2C }
  - { offsetInCU: 0x1487D, offset: 0x1487D, size: 0x8, addend: 0x0, symName: __ZNSt3__115__hash_iteratorIPNS_11__hash_nodeINS_17__hash_value_typeINS_12basic_stringIcNS_11char_traitsIcEENS_9allocatorIcEEEENS_6vectorIS8_NS6_IS8_EEEEEEPvEEEC1B8ue170006EPNS_16__hash_node_baseISF_EE, symObjAddr: 0x2800, symBinAddr: 0x100002F50, symSize: 0x34 }
  - { offsetInCU: 0x148C2, offset: 0x148C2, size: 0x8, addend: 0x0, symName: __ZNSt3__14pairINS_15__hash_iteratorIPNS_11__hash_nodeINS_17__hash_value_typeINS_12basic_stringIcNS_11char_traitsIcEENS_9allocatorIcEEEENS_6vectorIS9_NS7_IS9_EEEEEEPvEEEEbEC1B8ue170006ISH_RbLSE_0EEEOT_OT0_, symObjAddr: 0x2834, symBinAddr: 0x100002F84, symSize: 0x3C }
  - { offsetInCU: 0x14920, offset: 0x14920, size: 0x8, addend: 0x0, symName: __ZNSt3__117__compressed_pairImNS_22__unordered_map_hasherINS_12basic_stringIcNS_11char_traitsIcEENS_9allocatorIcEEEENS_17__hash_value_typeIS7_NS_6vectorIS7_NS5_IS7_EEEEEENS_4hashIS7_EENS_8equal_toIS7_EELb1EEEE6secondB8ue170006Ev, symObjAddr: 0x2870, symBinAddr: 0x100002FC0, symSize: 0x24 }
  - { offsetInCU: 0x14946, offset: 0x14946, size: 0x8, addend: 0x0, symName: __ZNSt3__122__compressed_pair_elemINS_22__unordered_map_hasherINS_12basic_stringIcNS_11char_traitsIcEENS_9allocatorIcEEEENS_17__hash_value_typeIS7_NS_6vectorIS7_NS5_IS7_EEEEEENS_4hashIS7_EENS_8equal_toIS7_EELb1EEELi1ELb1EE5__getB8ue170006Ev, symObjAddr: 0x2894, symBinAddr: 0x100002FE4, symSize: 0x14 }
  - { offsetInCU: 0x1496C, offset: 0x1496C, size: 0x8, addend: 0x0, symName: __ZNKSt3__113__string_hashIcNS_9allocatorIcEEEclB8ue170006ERKNS_12basic_stringIcNS_11char_traitsIcEES2_EE, symObjAddr: 0x28A8, symBinAddr: 0x100002FF8, symSize: 0x64 }
  - { offsetInCU: 0x149A1, offset: 0x149A1, size: 0x8, addend: 0x0, symName: __ZNKSt3__112basic_stringIcNS_11char_traitsIcEENS_9allocatorIcEEE4dataB8ue170006Ev, symObjAddr: 0x2948, symBinAddr: 0x100003098, symSize: 0x28 }
  - { offsetInCU: 0x149C7, offset: 0x149C7, size: 0x8, addend: 0x0, symName: __ZNKSt3__121__murmur2_or_cityhashImLm64EEclB8ue170006EPKvm, symObjAddr: 0x2970, symBinAddr: 0x1000030C0, symSize: 0x410 }
  - { offsetInCU: 0x14A61, offset: 0x14A61, size: 0x8, addend: 0x0, symName: __ZNSt3__121__murmur2_or_cityhashImLm64EE18__hash_len_0_to_16B8ue170006EPKcm, symObjAddr: 0x2D80, symBinAddr: 0x1000034D0, symSize: 0x1C0 }
  - { offsetInCU: 0x14B3A, offset: 0x14B3A, size: 0x8, addend: 0x0, symName: __ZNSt3__121__murmur2_or_cityhashImLm64EE19__hash_len_17_to_32B8ue170006EPKcm, symObjAddr: 0x2F40, symBinAddr: 0x100003690, symSize: 0x130 }
  - { offsetInCU: 0x14BA3, offset: 0x14BA3, size: 0x8, addend: 0x0, symName: __ZNSt3__121__murmur2_or_cityhashImLm64EE19__hash_len_33_to_64B8ue170006EPKcm, symObjAddr: 0x3070, symBinAddr: 0x1000037C0, symSize: 0x2B8 }
  - { offsetInCU: 0x14C58, offset: 0x14C58, size: 0x8, addend: 0x0, symName: __ZNSt3__121__murmur2_or_cityhashImLm64EE13__hash_len_16B8ue170006Emm, symObjAddr: 0x3348, symBinAddr: 0x100003A98, symSize: 0x80 }
  - { offsetInCU: 0x14CB3, offset: 0x14CB3, size: 0x8, addend: 0x0, symName: __ZNSt3__121__murmur2_or_cityhashImLm64EE29__weak_hash_len_32_with_seedsB8ue170006EPKcmm, symObjAddr: 0x33C8, symBinAddr: 0x100003B18, symSize: 0x88 }
  - { offsetInCU: 0x14CF2, offset: 0x14CF2, size: 0x8, addend: 0x0, symName: __ZNSt3__121__murmur2_or_cityhashImLm64EE8__rotateB8ue170006Emi, symObjAddr: 0x3450, symBinAddr: 0x100003BA0, symSize: 0x64 }
  - { offsetInCU: 0x14D23, offset: 0x14D23, size: 0x8, addend: 0x0, symName: __ZNSt3__14pairImmEaSB8ue170006EOS1_, symObjAddr: 0x34B4, symBinAddr: 0x100003C04, symSize: 0x30 }
  - { offsetInCU: 0x14D58, offset: 0x14D58, size: 0x8, addend: 0x0, symName: __ZNSt3__121__murmur2_or_cityhashImLm64EE11__shift_mixB8ue170006Em, symObjAddr: 0x3520, symBinAddr: 0x100003C70, symSize: 0x1C }
  - { offsetInCU: 0x14D7B, offset: 0x14D7B, size: 0x8, addend: 0x0, symName: __ZNSt3__121__murmur2_or_cityhashImLm64EE22__rotate_by_at_least_1B8ue170006Emi, symObjAddr: 0x353C, symBinAddr: 0x100003C8C, symSize: 0x38 }
  - { offsetInCU: 0x14DAC, offset: 0x14DAC, size: 0x8, addend: 0x0, symName: __ZNSt3__121__murmur2_or_cityhashImLm64EE29__weak_hash_len_32_with_seedsB8ue170006Emmmmmm, symObjAddr: 0x3594, symBinAddr: 0x100003CE4, symSize: 0xD8 }
  - { offsetInCU: 0x14E29, offset: 0x14E29, size: 0x8, addend: 0x0, symName: __ZNSt3__14pairImmEC1B8ue170006ImmLPv0EEEOT_OT0_, symObjAddr: 0x366C, symBinAddr: 0x100003DBC, symSize: 0x3C }
  - { offsetInCU: 0x14E87, offset: 0x14E87, size: 0x8, addend: 0x0, symName: __ZNSt3__14pairImmEC2B8ue170006ImmLPv0EEEOT_OT0_, symObjAddr: 0x36A8, symBinAddr: 0x100003DF8, symSize: 0x34 }
  - { offsetInCU: 0x14EE5, offset: 0x14EE5, size: 0x8, addend: 0x0, symName: __ZNKSt3__112basic_stringIcNS_11char_traitsIcEENS_9allocatorIcEEE13__get_pointerB8ue170006Ev, symObjAddr: 0x36F0, symBinAddr: 0x100003E40, symSize: 0x54 }
  - { offsetInCU: 0x14F0B, offset: 0x14F0B, size: 0x8, addend: 0x0, symName: __ZNKSt3__112basic_stringIcNS_11char_traitsIcEENS_9allocatorIcEEE18__get_long_pointerB8ue170006Ev, symObjAddr: 0x3744, symBinAddr: 0x100003E94, symSize: 0x28 }
  - { offsetInCU: 0x14F31, offset: 0x14F31, size: 0x8, addend: 0x0, symName: __ZNKSt3__112basic_stringIcNS_11char_traitsIcEENS_9allocatorIcEEE19__get_short_pointerB8ue170006Ev, symObjAddr: 0x376C, symBinAddr: 0x100003EBC, symSize: 0x28 }
  - { offsetInCU: 0x14F57, offset: 0x14F57, size: 0x8, addend: 0x0, symName: __ZNSt3__114pointer_traitsIPKcE10pointer_toB8ue170006ERS1_, symObjAddr: 0x3794, symBinAddr: 0x100003EE4, symSize: 0x14 }
  - { offsetInCU: 0x14F7A, offset: 0x14F7A, size: 0x8, addend: 0x0, symName: __ZNKSt3__110unique_ptrIA_PNS_16__hash_node_baseIPNS_11__hash_nodeINS_17__hash_value_typeINS_12basic_stringIcNS_11char_traitsIcEENS_9allocatorIcEEEENS_6vectorIS9_NS7_IS9_EEEEEEPvEEEENS_25__bucket_list_deallocatorINS7_ISI_EEEEE11get_deleterB8ue170006Ev, symObjAddr: 0x37A8, symBinAddr: 0x100003EF8, symSize: 0x24 }
  - { offsetInCU: 0x14FA0, offset: 0x14FA0, size: 0x8, addend: 0x0, symName: __ZNKSt3__125__bucket_list_deallocatorINS_9allocatorIPNS_16__hash_node_baseIPNS_11__hash_nodeINS_17__hash_value_typeINS_12basic_stringIcNS_11char_traitsIcEENS1_IcEEEENS_6vectorIS9_NS1_IS9_EEEEEEPvEEEEEEE4sizeB8ue170006Ev, symObjAddr: 0x37CC, symBinAddr: 0x100003F1C, symSize: 0x28 }
  - { offsetInCU: 0x14FC6, offset: 0x14FC6, size: 0x8, addend: 0x0, symName: __ZNKSt3__117__compressed_pairIPPNS_16__hash_node_baseIPNS_11__hash_nodeINS_17__hash_value_typeINS_12basic_stringIcNS_11char_traitsIcEENS_9allocatorIcEEEENS_6vectorIS9_NS7_IS9_EEEEEEPvEEEENS_25__bucket_list_deallocatorINS7_ISI_EEEEE6secondB8ue170006Ev, symObjAddr: 0x37F4, symBinAddr: 0x100003F44, symSize: 0x28 }
  - { offsetInCU: 0x14FEC, offset: 0x14FEC, size: 0x8, addend: 0x0, symName: __ZNKSt3__122__compressed_pair_elemINS_25__bucket_list_deallocatorINS_9allocatorIPNS_16__hash_node_baseIPNS_11__hash_nodeINS_17__hash_value_typeINS_12basic_stringIcNS_11char_traitsIcEENS2_IcEEEENS_6vectorISA_NS2_ISA_EEEEEEPvEEEEEEEELi1ELb0EE5__getB8ue170006Ev, symObjAddr: 0x381C, symBinAddr: 0x100003F6C, symSize: 0x14 }
  - { offsetInCU: 0x15012, offset: 0x15012, size: 0x8, addend: 0x0, symName: __ZNKSt3__117__compressed_pairImNS_9allocatorIPNS_16__hash_node_baseIPNS_11__hash_nodeINS_17__hash_value_typeINS_12basic_stringIcNS_11char_traitsIcEENS1_IcEEEENS_6vectorIS9_NS1_IS9_EEEEEEPvEEEEEEE5firstB8ue170006Ev, symObjAddr: 0x3830, symBinAddr: 0x100003F80, symSize: 0x24 }
  - { offsetInCU: 0x15038, offset: 0x15038, size: 0x8, addend: 0x0, symName: __ZNKSt3__122__compressed_pair_elemImLi0ELb0EE5__getB8ue170006Ev, symObjAddr: 0x3854, symBinAddr: 0x100003FA4, symSize: 0x14 }
  - { offsetInCU: 0x1505E, offset: 0x1505E, size: 0x8, addend: 0x0, symName: __ZNKSt3__117__compressed_pairIPPNS_16__hash_node_baseIPNS_11__hash_nodeINS_17__hash_value_typeINS_12basic_stringIcNS_11char_traitsIcEENS_9allocatorIcEEEENS_6vectorIS9_NS7_IS9_EEEEEEPvEEEENS_25__bucket_list_deallocatorINS7_ISI_EEEEE5firstB8ue170006Ev, symObjAddr: 0x3868, symBinAddr: 0x100003FB8, symSize: 0x24 }
  - { offsetInCU: 0x15084, offset: 0x15084, size: 0x8, addend: 0x0, symName: __ZNKSt3__122__compressed_pair_elemIPPNS_16__hash_node_baseIPNS_11__hash_nodeINS_17__hash_value_typeINS_12basic_stringIcNS_11char_traitsIcEENS_9allocatorIcEEEENS_6vectorIS9_NS7_IS9_EEEEEEPvEEEELi0ELb0EE5__getB8ue170006Ev, symObjAddr: 0x388C, symBinAddr: 0x100003FDC, symSize: 0x14 }
  - { offsetInCU: 0x150AA, offset: 0x150AA, size: 0x8, addend: 0x0, symName: __ZNSt3__117__compressed_pairIfNS_21__unordered_map_equalINS_12basic_stringIcNS_11char_traitsIcEENS_9allocatorIcEEEENS_17__hash_value_typeIS7_NS_6vectorIS7_NS5_IS7_EEEEEENS_8equal_toIS7_EENS_4hashIS7_EELb1EEEE6secondB8ue170006Ev, symObjAddr: 0x38A0, symBinAddr: 0x100003FF0, symSize: 0x24 }
  - { offsetInCU: 0x150D0, offset: 0x150D0, size: 0x8, addend: 0x0, symName: __ZNSt3__122__compressed_pair_elemINS_21__unordered_map_equalINS_12basic_stringIcNS_11char_traitsIcEENS_9allocatorIcEEEENS_17__hash_value_typeIS7_NS_6vectorIS7_NS5_IS7_EEEEEENS_8equal_toIS7_EENS_4hashIS7_EELb1EEELi1ELb1EE5__getB8ue170006Ev, symObjAddr: 0x38C4, symBinAddr: 0x100004014, symSize: 0x14 }
  - { offsetInCU: 0x150F6, offset: 0x150F6, size: 0x8, addend: 0x0, symName: __ZNKSt3__18equal_toINS_12basic_stringIcNS_11char_traitsIcEENS_9allocatorIcEEEEEclB8ue170006ERKS6_S9_, symObjAddr: 0x38D8, symBinAddr: 0x100004028, symSize: 0x34 }
  - { offsetInCU: 0x1513A, offset: 0x1513A, size: 0x8, addend: 0x0, symName: __ZNKSt3__117__hash_value_typeINS_12basic_stringIcNS_11char_traitsIcEENS_9allocatorIcEEEENS_6vectorIS6_NS4_IS6_EEEEE11__get_valueB8ue170006Ev, symObjAddr: 0x390C, symBinAddr: 0x10000405C, symSize: 0x24 }
  - { offsetInCU: 0x15160, offset: 0x15160, size: 0x8, addend: 0x0, symName: __ZNSt3__111char_traitsIcE7compareB8ue170006EPKcS3_m, symObjAddr: 0x3A78, symBinAddr: 0x1000041C8, symSize: 0x34 }
  - { offsetInCU: 0x1519F, offset: 0x1519F, size: 0x8, addend: 0x0, symName: __ZNSt3__114pointer_traitsIPNS_16__hash_node_baseIPNS_11__hash_nodeINS_17__hash_value_typeINS_12basic_stringIcNS_11char_traitsIcEENS_9allocatorIcEEEENS_6vectorIS9_NS7_IS9_EEEEEEPvEEEEE10pointer_toB8ue170006ERSH_, symObjAddr: 0x3AE4, symBinAddr: 0x100004234, symSize: 0x14 }
  - { offsetInCU: 0x151C2, offset: 0x151C2, size: 0x8, addend: 0x0, symName: __ZNSt3__112__hash_tableINS_17__hash_value_typeINS_12basic_stringIcNS_11char_traitsIcEENS_9allocatorIcEEEENS_6vectorIS7_NS5_IS7_EEEEEENS_22__unordered_map_hasherIS7_SB_NS_4hashIS7_EENS_8equal_toIS7_EELb1EEENS_21__unordered_map_equalIS7_SB_SG_SE_Lb1EEENS5_ISB_EEE12__node_allocB8ue170006Ev, symObjAddr: 0x3AF8, symBinAddr: 0x100004248, symSize: 0x28 }
  - { offsetInCU: 0x151E8, offset: 0x151E8, size: 0x8, addend: 0x0, symName: __ZNSt3__116allocator_traitsINS_9allocatorINS_11__hash_nodeINS_17__hash_value_typeINS_12basic_stringIcNS_11char_traitsIcEENS1_IcEEEENS_6vectorIS8_NS1_IS8_EEEEEEPvEEEEE8allocateB8ue170006ERSF_m, symObjAddr: 0x3B20, symBinAddr: 0x100004270, symSize: 0x2C }
  - { offsetInCU: 0x1521B, offset: 0x1521B, size: 0x8, addend: 0x0, symName: __ZNSt3__122__hash_node_destructorINS_9allocatorINS_11__hash_nodeINS_17__hash_value_typeINS_12basic_stringIcNS_11char_traitsIcEENS1_IcEEEENS_6vectorIS8_NS1_IS8_EEEEEEPvEEEEEC1B8ue170006ERSF_b, symObjAddr: 0x3B4C, symBinAddr: 0x10000429C, symSize: 0x48 }
  - { offsetInCU: 0x15269, offset: 0x15269, size: 0x8, addend: 0x0, symName: __ZNSt3__110unique_ptrINS_11__hash_nodeINS_17__hash_value_typeINS_12basic_stringIcNS_11char_traitsIcEENS_9allocatorIcEEEENS_6vectorIS8_NS6_IS8_EEEEEEPvEENS_22__hash_node_destructorINS6_ISE_EEEEEC1B8ue170006ILb1EvEEPSE_NS_16__dependent_typeINS_27__unique_ptr_deleter_sfinaeISH_EEXT_EE20__good_rval_ref_typeE, symObjAddr: 0x3B94, symBinAddr: 0x1000042E4, symSize: 0x3C }
  - { offsetInCU: 0x152BA, offset: 0x152BA, size: 0x8, addend: 0x0, symName: __ZNSt3__116allocator_traitsINS_9allocatorINS_11__hash_nodeINS_17__hash_value_typeINS_12basic_stringIcNS_11char_traitsIcEENS1_IcEEEENS_6vectorIS8_NS1_IS8_EEEEEEPvEEEEE9constructB8ue170006INS_4pairIKS8_SB_EEJRKNS_21piecewise_construct_tENS_5tupleIJRSJ_EEENSO_IJEEEEvvEEvRSF_PT_DpOT0_, symObjAddr: 0x3BD0, symBinAddr: 0x100004320, symSize: 0x40 }
  - { offsetInCU: 0x15336, offset: 0x15336, size: 0x8, addend: 0x0, symName: __ZNSt3__122__hash_key_value_typesINS_17__hash_value_typeINS_12basic_stringIcNS_11char_traitsIcEENS_9allocatorIcEEEENS_6vectorIS7_NS5_IS7_EEEEEEE9__get_ptrB8ue170006ERSB_, symObjAddr: 0x3C10, symBinAddr: 0x100004360, symSize: 0x24 }
  - { offsetInCU: 0x15359, offset: 0x15359, size: 0x8, addend: 0x0, symName: __ZNSt3__110unique_ptrINS_11__hash_nodeINS_17__hash_value_typeINS_12basic_stringIcNS_11char_traitsIcEENS_9allocatorIcEEEENS_6vectorIS8_NS6_IS8_EEEEEEPvEENS_22__hash_node_destructorINS6_ISE_EEEEE11get_deleterB8ue170006Ev, symObjAddr: 0x3C34, symBinAddr: 0x100004384, symSize: 0x24 }
  - { offsetInCU: 0x1537F, offset: 0x1537F, size: 0x8, addend: 0x0, symName: __ZNSt3__117__compressed_pairINS_16__hash_node_baseIPNS_11__hash_nodeINS_17__hash_value_typeINS_12basic_stringIcNS_11char_traitsIcEENS_9allocatorIcEEEENS_6vectorIS9_NS7_IS9_EEEEEEPvEEEENS7_ISF_EEE6secondB8ue170006Ev, symObjAddr: 0x3C58, symBinAddr: 0x1000043A8, symSize: 0x24 }
  - { offsetInCU: 0x153A5, offset: 0x153A5, size: 0x8, addend: 0x0, symName: __ZNSt3__122__compressed_pair_elemINS_9allocatorINS_11__hash_nodeINS_17__hash_value_typeINS_12basic_stringIcNS_11char_traitsIcEENS1_IcEEEENS_6vectorIS8_NS1_IS8_EEEEEEPvEEEELi1ELb1EE5__getB8ue170006Ev, symObjAddr: 0x3C7C, symBinAddr: 0x1000043CC, symSize: 0x14 }
  - { offsetInCU: 0x153CB, offset: 0x153CB, size: 0x8, addend: 0x0, symName: __ZNSt3__19allocatorINS_11__hash_nodeINS_17__hash_value_typeINS_12basic_stringIcNS_11char_traitsIcEENS0_IcEEEENS_6vectorIS7_NS0_IS7_EEEEEEPvEEE8allocateB8ue170006Em, symObjAddr: 0x3C90, symBinAddr: 0x1000043E0, symSize: 0x58 }
  - { offsetInCU: 0x1540A, offset: 0x1540A, size: 0x8, addend: 0x0, symName: __ZNSt3__116allocator_traitsINS_9allocatorINS_11__hash_nodeINS_17__hash_value_typeINS_12basic_stringIcNS_11char_traitsIcEENS1_IcEEEENS_6vectorIS8_NS1_IS8_EEEEEEPvEEEEE8max_sizeB8ue170006ISF_vvEEmRKSF_, symObjAddr: 0x3CE8, symBinAddr: 0x100004438, symSize: 0x28 }
  - { offsetInCU: 0x15435, offset: 0x15435, size: 0x8, addend: 0x0, symName: __ZNSt3__114numeric_limitsImE3maxB8ue170006Ev, symObjAddr: 0x3DA4, symBinAddr: 0x1000044F4, symSize: 0x14 }
  - { offsetInCU: 0x15449, offset: 0x15449, size: 0x8, addend: 0x0, symName: __ZNSt3__123__libcpp_numeric_limitsImLb1EE3maxB8ue170006Ev, symObjAddr: 0x3DB8, symBinAddr: 0x100004508, symSize: 0x8 }
  - { offsetInCU: 0x1545D, offset: 0x1545D, size: 0x8, addend: 0x0, symName: __ZNSt3__122__hash_node_destructorINS_9allocatorINS_11__hash_nodeINS_17__hash_value_typeINS_12basic_stringIcNS_11char_traitsIcEENS1_IcEEEENS_6vectorIS8_NS1_IS8_EEEEEEPvEEEEEC2B8ue170006ERSF_b, symObjAddr: 0x3E30, symBinAddr: 0x100004580, symSize: 0x38 }
  - { offsetInCU: 0x154A5, offset: 0x154A5, size: 0x8, addend: 0x0, symName: __ZNSt3__110unique_ptrINS_11__hash_nodeINS_17__hash_value_typeINS_12basic_stringIcNS_11char_traitsIcEENS_9allocatorIcEEEENS_6vectorIS8_NS6_IS8_EEEEEEPvEENS_22__hash_node_destructorINS6_ISE_EEEEEC2B8ue170006ILb1EvEEPSE_NS_16__dependent_typeINS_27__unique_ptr_deleter_sfinaeISH_EEXT_EE20__good_rval_ref_typeE, symObjAddr: 0x3E68, symBinAddr: 0x1000045B8, symSize: 0x48 }
  - { offsetInCU: 0x154F6, offset: 0x154F6, size: 0x8, addend: 0x0, symName: __ZNSt3__117__compressed_pairIPNS_11__hash_nodeINS_17__hash_value_typeINS_12basic_stringIcNS_11char_traitsIcEENS_9allocatorIcEEEENS_6vectorIS8_NS6_IS8_EEEEEEPvEENS_22__hash_node_destructorINS6_ISE_EEEEEC1B8ue170006IRSF_SI_EEOT_OT0_, symObjAddr: 0x3EB0, symBinAddr: 0x100004600, symSize: 0x3C }
  - { offsetInCU: 0x1554E, offset: 0x1554E, size: 0x8, addend: 0x0, symName: __ZNSt3__117__compressed_pairIPNS_11__hash_nodeINS_17__hash_value_typeINS_12basic_stringIcNS_11char_traitsIcEENS_9allocatorIcEEEENS_6vectorIS8_NS6_IS8_EEEEEEPvEENS_22__hash_node_destructorINS6_ISE_EEEEEC2B8ue170006IRSF_SI_EEOT_OT0_, symObjAddr: 0x3EEC, symBinAddr: 0x10000463C, symSize: 0x48 }
  - { offsetInCU: 0x155A6, offset: 0x155A6, size: 0x8, addend: 0x0, symName: __ZNSt3__122__compressed_pair_elemIPNS_11__hash_nodeINS_17__hash_value_typeINS_12basic_stringIcNS_11char_traitsIcEENS_9allocatorIcEEEENS_6vectorIS8_NS6_IS8_EEEEEEPvEELi0ELb0EEC2B8ue170006IRSF_vEEOT_, symObjAddr: 0x3F34, symBinAddr: 0x100004684, symSize: 0x24 }
  - { offsetInCU: 0x155E8, offset: 0x155E8, size: 0x8, addend: 0x0, symName: __ZNSt3__122__compressed_pair_elemINS_22__hash_node_destructorINS_9allocatorINS_11__hash_nodeINS_17__hash_value_typeINS_12basic_stringIcNS_11char_traitsIcEENS2_IcEEEENS_6vectorIS9_NS2_IS9_EEEEEEPvEEEEEELi1ELb0EEC2B8ue170006ISH_vEEOT_, symObjAddr: 0x3F58, symBinAddr: 0x1000046A8, symSize: 0x24 }
  - { offsetInCU: 0x1562A, offset: 0x1562A, size: 0x8, addend: 0x0, symName: __ZNSt3__14pairIKNS_12basic_stringIcNS_11char_traitsIcEENS_9allocatorIcEEEENS_6vectorIS6_NS4_IS6_EEEEEC1B8ue170006IJRS7_EJEEENS_21piecewise_construct_tENS_5tupleIJDpT_EEENSF_IJDpT0_EEE, symObjAddr: 0x3FCC, symBinAddr: 0x10000471C, symSize: 0x3C }
  - { offsetInCU: 0x15691, offset: 0x15691, size: 0x8, addend: 0x0, symName: __ZNSt3__14pairIKNS_12basic_stringIcNS_11char_traitsIcEENS_9allocatorIcEEEENS_6vectorIS6_NS4_IS6_EEEEEC1B8ue170006IJRS7_EJEJLm0EEJEEENS_21piecewise_construct_tERNS_5tupleIJDpT_EEERNSF_IJDpT0_EEENS_15__tuple_indicesIJXspT1_EEEENSO_IJXspT2_EEEE, symObjAddr: 0x4008, symBinAddr: 0x100004758, symSize: 0x3C }
  - { offsetInCU: 0x1571E, offset: 0x1571E, size: 0x8, addend: 0x0, symName: __ZNSt3__14pairIKNS_12basic_stringIcNS_11char_traitsIcEENS_9allocatorIcEEEENS_6vectorIS6_NS4_IS6_EEEEEC2B8ue170006IJRS7_EJEJLm0EEJEEENS_21piecewise_construct_tERNS_5tupleIJDpT_EEERNSF_IJDpT0_EEENS_15__tuple_indicesIJXspT1_EEEENSO_IJXspT2_EEEE, symObjAddr: 0x4044, symBinAddr: 0x100004794, symSize: 0x50 }
  - { offsetInCU: 0x157AB, offset: 0x157AB, size: 0x8, addend: 0x0, symName: __ZNSt3__16vectorINS_12basic_stringIcNS_11char_traitsIcEENS_9allocatorIcEEEENS4_IS6_EEEC1B8ue170006Ev, symObjAddr: 0x40B8, symBinAddr: 0x100004808, symSize: 0x2C }
  - { offsetInCU: 0x157D5, offset: 0x157D5, size: 0x8, addend: 0x0, symName: __ZNSt3__112__tuple_leafILm0ERKNS_12basic_stringIcNS_11char_traitsIcEENS_9allocatorIcEEEELb0EE3getB8ue170006Ev, symObjAddr: 0x40E4, symBinAddr: 0x100004834, symSize: 0x18 }
  - { offsetInCU: 0x157FB, offset: 0x157FB, size: 0x8, addend: 0x0, symName: __ZNSt3__16vectorINS_12basic_stringIcNS_11char_traitsIcEENS_9allocatorIcEEEENS4_IS6_EEEC2B8ue170006Ev, symObjAddr: 0x40FC, symBinAddr: 0x10000484C, symSize: 0x4C }
  - { offsetInCU: 0x1582B, offset: 0x1582B, size: 0x8, addend: 0x0, symName: __ZNSt3__117__compressed_pairIPNS_12basic_stringIcNS_11char_traitsIcEENS_9allocatorIcEEEENS4_IS6_EEEC1B8ue170006IDnNS_18__default_init_tagEEEOT_OT0_, symObjAddr: 0x4148, symBinAddr: 0x100004898, symSize: 0x3C }
  - { offsetInCU: 0x15883, offset: 0x15883, size: 0x8, addend: 0x0, symName: __ZNSt3__117__compressed_pairIPNS_12basic_stringIcNS_11char_traitsIcEENS_9allocatorIcEEEENS4_IS6_EEEC2B8ue170006IDnNS_18__default_init_tagEEEOT_OT0_, symObjAddr: 0x4184, symBinAddr: 0x1000048D4, symSize: 0x40 }
  - { offsetInCU: 0x158DB, offset: 0x158DB, size: 0x8, addend: 0x0, symName: __ZNSt3__122__compressed_pair_elemIPNS_12basic_stringIcNS_11char_traitsIcEENS_9allocatorIcEEEELi0ELb0EEC2B8ue170006IDnvEEOT_, symObjAddr: 0x41C4, symBinAddr: 0x100004914, symSize: 0x1C }
  - { offsetInCU: 0x1591D, offset: 0x1591D, size: 0x8, addend: 0x0, symName: __ZNSt3__122__compressed_pair_elemINS_9allocatorINS_12basic_stringIcNS_11char_traitsIcEENS1_IcEEEEEELi1ELb1EEC2B8ue170006ENS_18__default_init_tagE, symObjAddr: 0x41E0, symBinAddr: 0x100004930, symSize: 0x2C }
  - { offsetInCU: 0x15951, offset: 0x15951, size: 0x8, addend: 0x0, symName: __ZNSt3__19allocatorINS_12basic_stringIcNS_11char_traitsIcEENS0_IcEEEEEC2B8ue170006Ev, symObjAddr: 0x420C, symBinAddr: 0x10000495C, symSize: 0x2C }
  - { offsetInCU: 0x1597B, offset: 0x1597B, size: 0x8, addend: 0x0, symName: __ZNSt3__116__non_trivial_ifILb1ENS_9allocatorINS_12basic_stringIcNS_11char_traitsIcEENS1_IcEEEEEEEC2B8ue170006Ev, symObjAddr: 0x4238, symBinAddr: 0x100004988, symSize: 0x14 }
  - { offsetInCU: 0x159A5, offset: 0x159A5, size: 0x8, addend: 0x0, symName: __ZNSt3__117__compressed_pairIPNS_11__hash_nodeINS_17__hash_value_typeINS_12basic_stringIcNS_11char_traitsIcEENS_9allocatorIcEEEENS_6vectorIS8_NS6_IS8_EEEEEEPvEENS_22__hash_node_destructorINS6_ISE_EEEEE6secondB8ue170006Ev, symObjAddr: 0x424C, symBinAddr: 0x10000499C, symSize: 0x28 }
  - { offsetInCU: 0x159CB, offset: 0x159CB, size: 0x8, addend: 0x0, symName: __ZNSt3__122__compressed_pair_elemINS_22__hash_node_destructorINS_9allocatorINS_11__hash_nodeINS_17__hash_value_typeINS_12basic_stringIcNS_11char_traitsIcEENS2_IcEEEENS_6vectorIS9_NS2_IS9_EEEEEEPvEEEEEELi1ELb0EE5__getB8ue170006Ev, symObjAddr: 0x4274, symBinAddr: 0x1000049C4, symSize: 0x14 }
  - { offsetInCU: 0x159F1, offset: 0x159F1, size: 0x8, addend: 0x0, symName: __ZNSt3__117__compressed_pairImNS_22__unordered_map_hasherINS_12basic_stringIcNS_11char_traitsIcEENS_9allocatorIcEEEENS_17__hash_value_typeIS7_NS_6vectorIS7_NS5_IS7_EEEEEENS_4hashIS7_EENS_8equal_toIS7_EELb1EEEE5firstB8ue170006Ev, symObjAddr: 0x4288, symBinAddr: 0x1000049D8, symSize: 0x24 }
  - { offsetInCU: 0x15A17, offset: 0x15A17, size: 0x8, addend: 0x0, symName: __ZNSt3__122__compressed_pair_elemImLi0ELb0EE5__getB8ue170006Ev, symObjAddr: 0x42AC, symBinAddr: 0x1000049FC, symSize: 0x14 }
  - { offsetInCU: 0x15A3D, offset: 0x15A3D, size: 0x8, addend: 0x0, symName: __ZNSt3__117__compressed_pairIfNS_21__unordered_map_equalINS_12basic_stringIcNS_11char_traitsIcEENS_9allocatorIcEEEENS_17__hash_value_typeIS7_NS_6vectorIS7_NS5_IS7_EEEEEENS_8equal_toIS7_EENS_4hashIS7_EELb1EEEE5firstB8ue170006Ev, symObjAddr: 0x42C0, symBinAddr: 0x100004A10, symSize: 0x24 }
  - { offsetInCU: 0x15A63, offset: 0x15A63, size: 0x8, addend: 0x0, symName: __ZNSt3__122__compressed_pair_elemIfLi0ELb0EE5__getB8ue170006Ev, symObjAddr: 0x42E4, symBinAddr: 0x100004A34, symSize: 0x14 }
  - { offsetInCU: 0x15A89, offset: 0x15A89, size: 0x8, addend: 0x0, symName: __ZNSt3__112__hash_tableINS_17__hash_value_typeINS_12basic_stringIcNS_11char_traitsIcEENS_9allocatorIcEEEENS_6vectorIS7_NS5_IS7_EEEEEENS_22__unordered_map_hasherIS7_SB_NS_4hashIS7_EENS_8equal_toIS7_EELb1EEENS_21__unordered_map_equalIS7_SB_SG_SE_Lb1EEENS5_ISB_EEE8__rehashILb1EEEvm, symObjAddr: 0x42F8, symBinAddr: 0x100004A48, symSize: 0x1A8 }
  - { offsetInCU: 0x15AD9, offset: 0x15AD9, size: 0x8, addend: 0x0, symName: __ZNSt3__112__hash_tableINS_17__hash_value_typeINS_12basic_stringIcNS_11char_traitsIcEENS_9allocatorIcEEEENS_6vectorIS7_NS5_IS7_EEEEEENS_22__unordered_map_hasherIS7_SB_NS_4hashIS7_EENS_8equal_toIS7_EELb1EEENS_21__unordered_map_equalIS7_SB_SG_SE_Lb1EEENS5_ISB_EEE11__do_rehashILb1EEEvm, symObjAddr: 0x44A0, symBinAddr: 0x100004BF0, symSize: 0x288 }
  - { offsetInCU: 0x15BBC, offset: 0x15BBC, size: 0x8, addend: 0x0, symName: __ZNSt3__110unique_ptrIA_PNS_16__hash_node_baseIPNS_11__hash_nodeINS_17__hash_value_typeINS_12basic_stringIcNS_11char_traitsIcEENS_9allocatorIcEEEENS_6vectorIS9_NS7_IS9_EEEEEEPvEEEENS_25__bucket_list_deallocatorINS7_ISI_EEEEE11get_deleterB8ue170006Ev, symObjAddr: 0x4794, symBinAddr: 0x100004EE4, symSize: 0x24 }
  - { offsetInCU: 0x15BE2, offset: 0x15BE2, size: 0x8, addend: 0x0, symName: __ZNSt3__125__bucket_list_deallocatorINS_9allocatorIPNS_16__hash_node_baseIPNS_11__hash_nodeINS_17__hash_value_typeINS_12basic_stringIcNS_11char_traitsIcEENS1_IcEEEENS_6vectorIS9_NS1_IS9_EEEEEEPvEEEEEEE7__allocB8ue170006Ev, symObjAddr: 0x47B8, symBinAddr: 0x100004F08, symSize: 0x24 }
  - { offsetInCU: 0x15C08, offset: 0x15C08, size: 0x8, addend: 0x0, symName: __ZNSt3__110unique_ptrIA_PNS_16__hash_node_baseIPNS_11__hash_nodeINS_17__hash_value_typeINS_12basic_stringIcNS_11char_traitsIcEENS_9allocatorIcEEEENS_6vectorIS9_NS7_IS9_EEEEEEPvEEEENS_25__bucket_list_deallocatorINS7_ISI_EEEEE5resetB8ue170006IPSI_EENS_9enable_ifIXsr28_CheckArrayPointerConversionIT_EE5valueEvE4typeESR_, symObjAddr: 0x47DC, symBinAddr: 0x100004F2C, symSize: 0x78 }
  - { offsetInCU: 0x15C55, offset: 0x15C55, size: 0x8, addend: 0x0, symName: __ZNSt3__116allocator_traitsINS_9allocatorIPNS_16__hash_node_baseIPNS_11__hash_nodeINS_17__hash_value_typeINS_12basic_stringIcNS_11char_traitsIcEENS1_IcEEEENS_6vectorIS9_NS1_IS9_EEEEEEPvEEEEEEE8allocateB8ue170006ERSJ_m, symObjAddr: 0x4854, symBinAddr: 0x100004FA4, symSize: 0x2C }
  - { offsetInCU: 0x15C88, offset: 0x15C88, size: 0x8, addend: 0x0, symName: __ZNSt3__125__bucket_list_deallocatorINS_9allocatorIPNS_16__hash_node_baseIPNS_11__hash_nodeINS_17__hash_value_typeINS_12basic_stringIcNS_11char_traitsIcEENS1_IcEEEENS_6vectorIS9_NS1_IS9_EEEEEEPvEEEEEEE4sizeB8ue170006Ev, symObjAddr: 0x4880, symBinAddr: 0x100004FD0, symSize: 0x24 }
  - { offsetInCU: 0x15CAE, offset: 0x15CAE, size: 0x8, addend: 0x0, symName: __ZNSt3__117__compressed_pairIPPNS_16__hash_node_baseIPNS_11__hash_nodeINS_17__hash_value_typeINS_12basic_stringIcNS_11char_traitsIcEENS_9allocatorIcEEEENS_6vectorIS9_NS7_IS9_EEEEEEPvEEEENS_25__bucket_list_deallocatorINS7_ISI_EEEEE6secondB8ue170006Ev, symObjAddr: 0x48A4, symBinAddr: 0x100004FF4, symSize: 0x28 }
  - { offsetInCU: 0x15CD4, offset: 0x15CD4, size: 0x8, addend: 0x0, symName: __ZNSt3__122__compressed_pair_elemINS_25__bucket_list_deallocatorINS_9allocatorIPNS_16__hash_node_baseIPNS_11__hash_nodeINS_17__hash_value_typeINS_12basic_stringIcNS_11char_traitsIcEENS2_IcEEEENS_6vectorISA_NS2_ISA_EEEEEEPvEEEEEEEELi1ELb0EE5__getB8ue170006Ev, symObjAddr: 0x48CC, symBinAddr: 0x10000501C, symSize: 0x14 }
  - { offsetInCU: 0x15CFA, offset: 0x15CFA, size: 0x8, addend: 0x0, symName: __ZNSt3__117__compressed_pairImNS_9allocatorIPNS_16__hash_node_baseIPNS_11__hash_nodeINS_17__hash_value_typeINS_12basic_stringIcNS_11char_traitsIcEENS1_IcEEEENS_6vectorIS9_NS1_IS9_EEEEEEPvEEEEEEE6secondB8ue170006Ev, symObjAddr: 0x48E0, symBinAddr: 0x100005030, symSize: 0x24 }
  - { offsetInCU: 0x15D20, offset: 0x15D20, size: 0x8, addend: 0x0, symName: __ZNSt3__122__compressed_pair_elemINS_9allocatorIPNS_16__hash_node_baseIPNS_11__hash_nodeINS_17__hash_value_typeINS_12basic_stringIcNS_11char_traitsIcEENS1_IcEEEENS_6vectorIS9_NS1_IS9_EEEEEEPvEEEEEELi1ELb1EE5__getB8ue170006Ev, symObjAddr: 0x4904, symBinAddr: 0x100005054, symSize: 0x14 }
  - { offsetInCU: 0x15D46, offset: 0x15D46, size: 0x8, addend: 0x0, symName: __ZNSt3__117__compressed_pairIPPNS_16__hash_node_baseIPNS_11__hash_nodeINS_17__hash_value_typeINS_12basic_stringIcNS_11char_traitsIcEENS_9allocatorIcEEEENS_6vectorIS9_NS7_IS9_EEEEEEPvEEEENS_25__bucket_list_deallocatorINS7_ISI_EEEEE5firstB8ue170006Ev, symObjAddr: 0x4918, symBinAddr: 0x100005068, symSize: 0x24 }
  - { offsetInCU: 0x15D6C, offset: 0x15D6C, size: 0x8, addend: 0x0, symName: __ZNSt3__125__bucket_list_deallocatorINS_9allocatorIPNS_16__hash_node_baseIPNS_11__hash_nodeINS_17__hash_value_typeINS_12basic_stringIcNS_11char_traitsIcEENS1_IcEEEENS_6vectorIS9_NS1_IS9_EEEEEEPvEEEEEEEclB8ue170006EPSI_, symObjAddr: 0x493C, symBinAddr: 0x10000508C, symSize: 0x58 }
  - { offsetInCU: 0x15DA1, offset: 0x15DA1, size: 0x8, addend: 0x0, symName: __ZNSt3__122__compressed_pair_elemIPPNS_16__hash_node_baseIPNS_11__hash_nodeINS_17__hash_value_typeINS_12basic_stringIcNS_11char_traitsIcEENS_9allocatorIcEEEENS_6vectorIS9_NS7_IS9_EEEEEEPvEEEELi0ELb0EE5__getB8ue170006Ev, symObjAddr: 0x4994, symBinAddr: 0x1000050E4, symSize: 0x14 }
  - { offsetInCU: 0x15DC7, offset: 0x15DC7, size: 0x8, addend: 0x0, symName: __ZNSt3__116allocator_traitsINS_9allocatorIPNS_16__hash_node_baseIPNS_11__hash_nodeINS_17__hash_value_typeINS_12basic_stringIcNS_11char_traitsIcEENS1_IcEEEENS_6vectorIS9_NS1_IS9_EEEEEEPvEEEEEEE10deallocateB8ue170006ERSJ_PSI_m, symObjAddr: 0x49A8, symBinAddr: 0x1000050F8, symSize: 0x34 }
  - { offsetInCU: 0x15E09, offset: 0x15E09, size: 0x8, addend: 0x0, symName: __ZNSt3__19allocatorIPNS_16__hash_node_baseIPNS_11__hash_nodeINS_17__hash_value_typeINS_12basic_stringIcNS_11char_traitsIcEENS0_IcEEEENS_6vectorIS8_NS0_IS8_EEEEEEPvEEEEE10deallocateB8ue170006EPSH_m, symObjAddr: 0x49DC, symBinAddr: 0x10000512C, symSize: 0x40 }
  - { offsetInCU: 0x15E4B, offset: 0x15E4B, size: 0x8, addend: 0x0, symName: __ZNSt3__19allocatorIPNS_16__hash_node_baseIPNS_11__hash_nodeINS_17__hash_value_typeINS_12basic_stringIcNS_11char_traitsIcEENS0_IcEEEENS_6vectorIS8_NS0_IS8_EEEEEEPvEEEEE8allocateB8ue170006Em, symObjAddr: 0x4B24, symBinAddr: 0x100005274, symSize: 0x58 }
  - { offsetInCU: 0x15E8A, offset: 0x15E8A, size: 0x8, addend: 0x0, symName: __ZNSt3__116allocator_traitsINS_9allocatorIPNS_16__hash_node_baseIPNS_11__hash_nodeINS_17__hash_value_typeINS_12basic_stringIcNS_11char_traitsIcEENS1_IcEEEENS_6vectorIS9_NS1_IS9_EEEEEEPvEEEEEEE8max_sizeB8ue170006ISJ_vvEEmRKSJ_, symObjAddr: 0x4B7C, symBinAddr: 0x1000052CC, symSize: 0x28 }
  - { offsetInCU: 0x15EB5, offset: 0x15EB5, size: 0x8, addend: 0x0, symName: __ZNSt3__117__compressed_pairImNS_9allocatorIPNS_16__hash_node_baseIPNS_11__hash_nodeINS_17__hash_value_typeINS_12basic_stringIcNS_11char_traitsIcEENS1_IcEEEENS_6vectorIS9_NS1_IS9_EEEEEEPvEEEEEEE5firstB8ue170006Ev, symObjAddr: 0x4BA4, symBinAddr: 0x1000052F4, symSize: 0x24 }
  - { offsetInCU: 0x15EE5, offset: 0x15EE5, size: 0x8, addend: 0x0, symName: __ZNKSt3__16__lessIvvEclB8ue170006ImmEEbRKT_RKT0_, symObjAddr: 0x4C38, symBinAddr: 0x100005388, symSize: 0x34 }
  - { offsetInCU: 0x15F39, offset: 0x15F39, size: 0x8, addend: 0x0, symName: __ZNSt3__122__compressed_pair_elemINS_16__hash_node_baseIPNS_11__hash_nodeINS_17__hash_value_typeINS_12basic_stringIcNS_11char_traitsIcEENS_9allocatorIcEEEENS_6vectorIS9_NS7_IS9_EEEEEEPvEEEELi0ELb0EE5__getB8ue170006Ev, symObjAddr: 0x4C6C, symBinAddr: 0x1000053BC, symSize: 0x14 }
  - { offsetInCU: 0x15F5F, offset: 0x15F5F, size: 0x8, addend: 0x0, symName: __ZNKSt3__117__compressed_pairIPNS_11__hash_nodeINS_17__hash_value_typeINS_12basic_stringIcNS_11char_traitsIcEENS_9allocatorIcEEEENS_6vectorIS8_NS6_IS8_EEEEEEPvEENS_22__hash_node_destructorINS6_ISE_EEEEE5firstB8ue170006Ev, symObjAddr: 0x4C80, symBinAddr: 0x1000053D0, symSize: 0x24 }
  - { offsetInCU: 0x15F85, offset: 0x15F85, size: 0x8, addend: 0x0, symName: __ZNKSt3__122__compressed_pair_elemIPNS_11__hash_nodeINS_17__hash_value_typeINS_12basic_stringIcNS_11char_traitsIcEENS_9allocatorIcEEEENS_6vectorIS8_NS6_IS8_EEEEEEPvEELi0ELb0EE5__getB8ue170006Ev, symObjAddr: 0x4CA4, symBinAddr: 0x1000053F4, symSize: 0x14 }
  - { offsetInCU: 0x15FAB, offset: 0x15FAB, size: 0x8, addend: 0x0, symName: __ZNSt3__117__compressed_pairIPNS_11__hash_nodeINS_17__hash_value_typeINS_12basic_stringIcNS_11char_traitsIcEENS_9allocatorIcEEEENS_6vectorIS8_NS6_IS8_EEEEEEPvEENS_22__hash_node_destructorINS6_ISE_EEEEE5firstB8ue170006Ev, symObjAddr: 0x4CB8, symBinAddr: 0x100005408, symSize: 0x24 }
  - { offsetInCU: 0x15FD1, offset: 0x15FD1, size: 0x8, addend: 0x0, symName: __ZNSt3__122__compressed_pair_elemIPNS_11__hash_nodeINS_17__hash_value_typeINS_12basic_stringIcNS_11char_traitsIcEENS_9allocatorIcEEEENS_6vectorIS8_NS6_IS8_EEEEEEPvEELi0ELb0EE5__getB8ue170006Ev, symObjAddr: 0x4CDC, symBinAddr: 0x10000542C, symSize: 0x14 }
  - { offsetInCU: 0x15FF7, offset: 0x15FF7, size: 0x8, addend: 0x0, symName: __ZNSt3__110unique_ptrINS_11__hash_nodeINS_17__hash_value_typeINS_12basic_stringIcNS_11char_traitsIcEENS_9allocatorIcEEEENS_6vectorIS8_NS6_IS8_EEEEEEPvEENS_22__hash_node_destructorINS6_ISE_EEEEED2B8ue170006Ev, symObjAddr: 0x4CF0, symBinAddr: 0x100005440, symSize: 0x30 }
  - { offsetInCU: 0x16021, offset: 0x16021, size: 0x8, addend: 0x0, symName: __ZNSt3__110unique_ptrINS_11__hash_nodeINS_17__hash_value_typeINS_12basic_stringIcNS_11char_traitsIcEENS_9allocatorIcEEEENS_6vectorIS8_NS6_IS8_EEEEEEPvEENS_22__hash_node_destructorINS6_ISE_EEEEE5resetB8ue170006EPSE_, symObjAddr: 0x4D20, symBinAddr: 0x100005470, symSize: 0x78 }
  - { offsetInCU: 0x16065, offset: 0x16065, size: 0x8, addend: 0x0, symName: __ZNSt3__122__hash_node_destructorINS_9allocatorINS_11__hash_nodeINS_17__hash_value_typeINS_12basic_stringIcNS_11char_traitsIcEENS1_IcEEEENS_6vectorIS8_NS1_IS8_EEEEEEPvEEEEEclB8ue170006EPSE_, symObjAddr: 0x4D98, symBinAddr: 0x1000054E8, symSize: 0x98 }
  - { offsetInCU: 0x1609A, offset: 0x1609A, size: 0x8, addend: 0x0, symName: __ZNSt3__116allocator_traitsINS_9allocatorINS_11__hash_nodeINS_17__hash_value_typeINS_12basic_stringIcNS_11char_traitsIcEENS1_IcEEEENS_6vectorIS8_NS1_IS8_EEEEEEPvEEEEE7destroyB8ue170006INS_4pairIKS8_SB_EEvvEEvRSF_PT_, symObjAddr: 0x4E30, symBinAddr: 0x100005580, symSize: 0x28 }
  - { offsetInCU: 0x160D4, offset: 0x160D4, size: 0x8, addend: 0x0, symName: __ZNSt3__116allocator_traitsINS_9allocatorINS_11__hash_nodeINS_17__hash_value_typeINS_12basic_stringIcNS_11char_traitsIcEENS1_IcEEEENS_6vectorIS8_NS1_IS8_EEEEEEPvEEEEE10deallocateB8ue170006ERSF_PSE_m, symObjAddr: 0x4E58, symBinAddr: 0x1000055A8, symSize: 0x34 }
  - { offsetInCU: 0x16116, offset: 0x16116, size: 0x8, addend: 0x0, symName: __ZNSt3__14pairIKNS_12basic_stringIcNS_11char_traitsIcEENS_9allocatorIcEEEENS_6vectorIS6_NS4_IS6_EEEEED1Ev, symObjAddr: 0x4ED4, symBinAddr: 0x100005624, symSize: 0x2C }
  - { offsetInCU: 0x16142, offset: 0x16142, size: 0x8, addend: 0x0, symName: __ZNSt3__14pairIKNS_12basic_stringIcNS_11char_traitsIcEENS_9allocatorIcEEEENS_6vectorIS6_NS4_IS6_EEEEED2Ev, symObjAddr: 0x4F00, symBinAddr: 0x100005650, symSize: 0x38 }
  - { offsetInCU: 0x1616E, offset: 0x1616E, size: 0x8, addend: 0x0, symName: __ZNSt3__19allocatorINS_11__hash_nodeINS_17__hash_value_typeINS_12basic_stringIcNS_11char_traitsIcEENS0_IcEEEENS_6vectorIS7_NS0_IS7_EEEEEEPvEEE10deallocateB8ue170006EPSD_m, symObjAddr: 0x4F38, symBinAddr: 0x100005688, symSize: 0x40 }
  - { offsetInCU: 0x161B0, offset: 0x161B0, size: 0x8, addend: 0x0, symName: __ZNSt3__115__hash_iteratorIPNS_11__hash_nodeINS_17__hash_value_typeINS_12basic_stringIcNS_11char_traitsIcEENS_9allocatorIcEEEENS_6vectorIS8_NS6_IS8_EEEEEEPvEEEC2B8ue170006EPNS_16__hash_node_baseISF_EE, symObjAddr: 0x4F78, symBinAddr: 0x1000056C8, symSize: 0x20 }
  - { offsetInCU: 0x161E9, offset: 0x161E9, size: 0x8, addend: 0x0, symName: __ZNSt3__14pairINS_15__hash_iteratorIPNS_11__hash_nodeINS_17__hash_value_typeINS_12basic_stringIcNS_11char_traitsIcEENS_9allocatorIcEEEENS_6vectorIS9_NS7_IS9_EEEEEEPvEEEEbEC2B8ue170006ISH_RbLSE_0EEEOT_OT0_, symObjAddr: 0x4F98, symBinAddr: 0x1000056E8, symSize: 0x38 }
  - { offsetInCU: 0x16247, offset: 0x16247, size: 0x8, addend: 0x0, symName: __ZNSt3__15tupleIJRKNS_12basic_stringIcNS_11char_traitsIcEENS_9allocatorIcEEEEEEC1B8ue170006INS_4_AndELi0EEES8_, symObjAddr: 0x4FD0, symBinAddr: 0x100005720, symSize: 0x34 }
  - { offsetInCU: 0x1628F, offset: 0x1628F, size: 0x8, addend: 0x0, symName: __ZNSt3__15tupleIJRKNS_12basic_stringIcNS_11char_traitsIcEENS_9allocatorIcEEEEEEC2B8ue170006INS_4_AndELi0EEES8_, symObjAddr: 0x5004, symBinAddr: 0x100005754, symSize: 0x34 }
  - { offsetInCU: 0x162D7, offset: 0x162D7, size: 0x8, addend: 0x0, symName: __ZNSt3__112__tuple_implINS_15__tuple_indicesIJLm0EEEEJRKNS_12basic_stringIcNS_11char_traitsIcEENS_9allocatorIcEEEEEEC1B8ue170006IJLm0EEJSA_EJEJEJSA_EEENS1_IJXspT_EEEENS_13__tuple_typesIJDpT0_EEENS1_IJXspT1_EEEENSE_IJDpT2_EEEDpOT3_, symObjAddr: 0x5038, symBinAddr: 0x100005788, symSize: 0x34 }
  - { offsetInCU: 0x16368, offset: 0x16368, size: 0x8, addend: 0x0, symName: __ZNSt3__112__tuple_implINS_15__tuple_indicesIJLm0EEEEJRKNS_12basic_stringIcNS_11char_traitsIcEENS_9allocatorIcEEEEEEC2B8ue170006IJLm0EEJSA_EJEJEJSA_EEENS1_IJXspT_EEEENS_13__tuple_typesIJDpT0_EEENS1_IJXspT1_EEEENSE_IJDpT2_EEEDpOT3_, symObjAddr: 0x506C, symBinAddr: 0x1000057BC, symSize: 0x34 }
  - { offsetInCU: 0x163F9, offset: 0x163F9, size: 0x8, addend: 0x0, symName: __ZNSt3__112__tuple_leafILm0ERKNS_12basic_stringIcNS_11char_traitsIcEENS_9allocatorIcEEEELb0EEC2B8ue170006IS8_vEEOT_, symObjAddr: 0x50A0, symBinAddr: 0x1000057F0, symSize: 0x20 }
  - { offsetInCU: 0x1643C, offset: 0x1643C, size: 0x8, addend: 0x0, symName: __ZNSt3__114pointer_traitsIPNS_17__hash_value_typeINS_12basic_stringIcNS_11char_traitsIcEENS_9allocatorIcEEEENS_6vectorIS7_NS5_IS7_EEEEEEE10pointer_toB8ue170006ERSB_, symObjAddr: 0x50C0, symBinAddr: 0x100005810, symSize: 0x14 }
  - { offsetInCU: 0x1645F, offset: 0x1645F, size: 0x8, addend: 0x0, symName: __ZNSt3__16vectorINS_12basic_stringIcNS_11char_traitsIcEENS_9allocatorIcEEEENS4_IS6_EEE9__end_capB8ue170006Ev, symObjAddr: 0x510C, symBinAddr: 0x10000585C, symSize: 0x28 }
  - { offsetInCU: 0x16485, offset: 0x16485, size: 0x8, addend: 0x0, symName: __ZNSt3__16vectorINS_12basic_stringIcNS_11char_traitsIcEENS_9allocatorIcEEEENS4_IS6_EEE22__construct_one_at_endB8ue170006IJRKS6_EEEvDpOT_, symObjAddr: 0x5134, symBinAddr: 0x100005884, symSize: 0x90 }
  - { offsetInCU: 0x164D4, offset: 0x164D4, size: 0x8, addend: 0x0, symName: __ZNSt3__16vectorINS_12basic_stringIcNS_11char_traitsIcEENS_9allocatorIcEEEENS4_IS6_EEE21__push_back_slow_pathIRKS6_EEvOT_, symObjAddr: 0x51C4, symBinAddr: 0x100005914, symSize: 0xD8 }
  - { offsetInCU: 0x16532, offset: 0x16532, size: 0x8, addend: 0x0, symName: __ZNSt3__117__compressed_pairIPNS_12basic_stringIcNS_11char_traitsIcEENS_9allocatorIcEEEENS4_IS6_EEE5firstB8ue170006Ev, symObjAddr: 0x529C, symBinAddr: 0x1000059EC, symSize: 0x24 }
  - { offsetInCU: 0x16558, offset: 0x16558, size: 0x8, addend: 0x0, symName: __ZNSt3__122__compressed_pair_elemIPNS_12basic_stringIcNS_11char_traitsIcEENS_9allocatorIcEEEELi0ELb0EE5__getB8ue170006Ev, symObjAddr: 0x52C0, symBinAddr: 0x100005A10, symSize: 0x14 }
  - { offsetInCU: 0x16599, offset: 0x16599, size: 0x8, addend: 0x0, symName: __ZNSt3__16vectorINS_12basic_stringIcNS_11char_traitsIcEENS_9allocatorIcEEEENS4_IS6_EEE21_ConstructTransactionC1B8ue170006ERS8_m, symObjAddr: 0x52D4, symBinAddr: 0x100005A24, symSize: 0x3C }
  - { offsetInCU: 0x165E1, offset: 0x165E1, size: 0x8, addend: 0x0, symName: __ZNSt3__116allocator_traitsINS_9allocatorINS_12basic_stringIcNS_11char_traitsIcEENS1_IcEEEEEEE9constructB8ue170006IS6_JRKS6_EvvEEvRS7_PT_DpOT0_, symObjAddr: 0x5310, symBinAddr: 0x100005A60, symSize: 0x30 }
  - { offsetInCU: 0x16635, offset: 0x16635, size: 0x8, addend: 0x0, symName: __ZNSt3__16vectorINS_12basic_stringIcNS_11char_traitsIcEENS_9allocatorIcEEEENS4_IS6_EEE7__allocB8ue170006Ev, symObjAddr: 0x5340, symBinAddr: 0x100005A90, symSize: 0x28 }
  - { offsetInCU: 0x1665B, offset: 0x1665B, size: 0x8, addend: 0x0, symName: __ZNSt3__16vectorINS_12basic_stringIcNS_11char_traitsIcEENS_9allocatorIcEEEENS4_IS6_EEE21_ConstructTransactionD1B8ue170006Ev, symObjAddr: 0x537C, symBinAddr: 0x100005ACC, symSize: 0x2C }
  - { offsetInCU: 0x16685, offset: 0x16685, size: 0x8, addend: 0x0, symName: __ZNSt3__16vectorINS_12basic_stringIcNS_11char_traitsIcEENS_9allocatorIcEEEENS4_IS6_EEE21_ConstructTransactionC2B8ue170006ERS8_m, symObjAddr: 0x53A8, symBinAddr: 0x100005AF8, symSize: 0x4C }
  - { offsetInCU: 0x166CD, offset: 0x166CD, size: 0x8, addend: 0x0, symName: __ZNSt3__117__compressed_pairIPNS_12basic_stringIcNS_11char_traitsIcEENS_9allocatorIcEEEENS4_IS6_EEE6secondB8ue170006Ev, symObjAddr: 0x5430, symBinAddr: 0x100005B80, symSize: 0x24 }
  - { offsetInCU: 0x166F3, offset: 0x166F3, size: 0x8, addend: 0x0, symName: __ZNSt3__122__compressed_pair_elemINS_9allocatorINS_12basic_stringIcNS_11char_traitsIcEENS1_IcEEEEEELi1ELb1EE5__getB8ue170006Ev, symObjAddr: 0x5454, symBinAddr: 0x100005BA4, symSize: 0x14 }
  - { offsetInCU: 0x16719, offset: 0x16719, size: 0x8, addend: 0x0, symName: __ZNSt3__16vectorINS_12basic_stringIcNS_11char_traitsIcEENS_9allocatorIcEEEENS4_IS6_EEE21_ConstructTransactionD2B8ue170006Ev, symObjAddr: 0x5468, symBinAddr: 0x100005BB8, symSize: 0x20 }
  - { offsetInCU: 0x16743, offset: 0x16743, size: 0x8, addend: 0x0, symName: __ZNKSt3__16vectorINS_12basic_stringIcNS_11char_traitsIcEENS_9allocatorIcEEEENS4_IS6_EEE11__recommendB8ue170006Em, symObjAddr: 0x5488, symBinAddr: 0x100005BD8, symSize: 0xB4 }
  - { offsetInCU: 0x16798, offset: 0x16798, size: 0x8, addend: 0x0, symName: __ZNKSt3__16vectorINS_12basic_stringIcNS_11char_traitsIcEENS_9allocatorIcEEEENS4_IS6_EEE4sizeB8ue170006Ev, symObjAddr: 0x553C, symBinAddr: 0x100005C8C, symSize: 0x28 }
  - { offsetInCU: 0x167BE, offset: 0x167BE, size: 0x8, addend: 0x0, symName: __ZNSt3__114__split_bufferINS_12basic_stringIcNS_11char_traitsIcEENS_9allocatorIcEEEERNS4_IS6_EEEC1EmmS8_, symObjAddr: 0x5564, symBinAddr: 0x100005CB4, symSize: 0x44 }
  - { offsetInCU: 0x16814, offset: 0x16814, size: 0x8, addend: 0x0, symName: __ZNSt3__114__split_bufferINS_12basic_stringIcNS_11char_traitsIcEENS_9allocatorIcEEEERNS4_IS6_EEED1Ev, symObjAddr: 0x56B8, symBinAddr: 0x100005E08, symSize: 0x2C }
  - { offsetInCU: 0x16840, offset: 0x16840, size: 0x8, addend: 0x0, symName: __ZNKSt3__16vectorINS_12basic_stringIcNS_11char_traitsIcEENS_9allocatorIcEEEENS4_IS6_EEE8max_sizeEv, symObjAddr: 0x56E4, symBinAddr: 0x100005E34, symSize: 0x60 }
  - { offsetInCU: 0x16868, offset: 0x16868, size: 0x8, addend: 0x0, symName: __ZNKSt3__16vectorINS_12basic_stringIcNS_11char_traitsIcEENS_9allocatorIcEEEENS4_IS6_EEE20__throw_length_errorB8ue170006Ev, symObjAddr: 0x5744, symBinAddr: 0x100005E94, symSize: 0x1C }
  - { offsetInCU: 0x1688E, offset: 0x1688E, size: 0x8, addend: 0x0, symName: __ZNKSt3__16vectorINS_12basic_stringIcNS_11char_traitsIcEENS_9allocatorIcEEEENS4_IS6_EEE8capacityB8ue170006Ev, symObjAddr: 0x5760, symBinAddr: 0x100005EB0, symSize: 0x40 }
  - { offsetInCU: 0x168BF, offset: 0x168BF, size: 0x8, addend: 0x0, symName: __ZNSt3__116allocator_traitsINS_9allocatorINS_12basic_stringIcNS_11char_traitsIcEENS1_IcEEEEEEE8max_sizeB8ue170006IS7_vvEEmRKS7_, symObjAddr: 0x57CC, symBinAddr: 0x100005F1C, symSize: 0x28 }
  - { offsetInCU: 0x168EA, offset: 0x168EA, size: 0x8, addend: 0x0, symName: __ZNKSt3__16vectorINS_12basic_stringIcNS_11char_traitsIcEENS_9allocatorIcEEEENS4_IS6_EEE7__allocB8ue170006Ev, symObjAddr: 0x57F4, symBinAddr: 0x100005F44, symSize: 0x28 }
  - { offsetInCU: 0x16910, offset: 0x16910, size: 0x8, addend: 0x0, symName: __ZNSt3__114numeric_limitsIlE3maxB8ue170006Ev, symObjAddr: 0x581C, symBinAddr: 0x100005F6C, symSize: 0x14 }
  - { offsetInCU: 0x16924, offset: 0x16924, size: 0x8, addend: 0x0, symName: __ZNKSt3__117__compressed_pairIPNS_12basic_stringIcNS_11char_traitsIcEENS_9allocatorIcEEEENS4_IS6_EEE6secondB8ue170006Ev, symObjAddr: 0x5884, symBinAddr: 0x100005FD4, symSize: 0x24 }
  - { offsetInCU: 0x1694A, offset: 0x1694A, size: 0x8, addend: 0x0, symName: __ZNKSt3__122__compressed_pair_elemINS_9allocatorINS_12basic_stringIcNS_11char_traitsIcEENS1_IcEEEEEELi1ELb1EE5__getB8ue170006Ev, symObjAddr: 0x58A8, symBinAddr: 0x100005FF8, symSize: 0x14 }
  - { offsetInCU: 0x16970, offset: 0x16970, size: 0x8, addend: 0x0, symName: __ZNSt3__123__libcpp_numeric_limitsIlLb1EE3maxB8ue170006Ev, symObjAddr: 0x58BC, symBinAddr: 0x10000600C, symSize: 0x8 }
  - { offsetInCU: 0x16984, offset: 0x16984, size: 0x8, addend: 0x0, symName: __ZNSt12length_errorC1B8ue170006EPKc, symObjAddr: 0x5928, symBinAddr: 0x100006078, symSize: 0x34 }
  - { offsetInCU: 0x169BC, offset: 0x169BC, size: 0x8, addend: 0x0, symName: __ZNSt12length_errorC2B8ue170006EPKc, symObjAddr: 0x595C, symBinAddr: 0x1000060AC, symSize: 0x4C }
  - { offsetInCU: 0x169F4, offset: 0x169F4, size: 0x8, addend: 0x0, symName: __ZNKSt3__16vectorINS_12basic_stringIcNS_11char_traitsIcEENS_9allocatorIcEEEENS4_IS6_EEE9__end_capB8ue170006Ev, symObjAddr: 0x59A8, symBinAddr: 0x1000060F8, symSize: 0x28 }
  - { offsetInCU: 0x16A1A, offset: 0x16A1A, size: 0x8, addend: 0x0, symName: __ZNKSt3__117__compressed_pairIPNS_12basic_stringIcNS_11char_traitsIcEENS_9allocatorIcEEEENS4_IS6_EEE5firstB8ue170006Ev, symObjAddr: 0x59D0, symBinAddr: 0x100006120, symSize: 0x24 }
  - { offsetInCU: 0x16A40, offset: 0x16A40, size: 0x8, addend: 0x0, symName: __ZNKSt3__122__compressed_pair_elemIPNS_12basic_stringIcNS_11char_traitsIcEENS_9allocatorIcEEEELi0ELb0EE5__getB8ue170006Ev, symObjAddr: 0x59F4, symBinAddr: 0x100006144, symSize: 0x14 }
  - { offsetInCU: 0x16A66, offset: 0x16A66, size: 0x8, addend: 0x0, symName: __ZNSt3__114__split_bufferINS_12basic_stringIcNS_11char_traitsIcEENS_9allocatorIcEEEERNS4_IS6_EEEC2EmmS8_, symObjAddr: 0x5A08, symBinAddr: 0x100006158, symSize: 0xE0 }
  - { offsetInCU: 0x16AD9, offset: 0x16AD9, size: 0x8, addend: 0x0, symName: __ZNSt3__117__compressed_pairIPNS_12basic_stringIcNS_11char_traitsIcEENS_9allocatorIcEEEERNS4_IS6_EEEC1B8ue170006IDnS9_EEOT_OT0_, symObjAddr: 0x5AE8, symBinAddr: 0x100006238, symSize: 0x3C }
  - { offsetInCU: 0x16B31, offset: 0x16B31, size: 0x8, addend: 0x0, symName: __ZNSt3__114__split_bufferINS_12basic_stringIcNS_11char_traitsIcEENS_9allocatorIcEEEERNS4_IS6_EEE7__allocB8ue170006Ev, symObjAddr: 0x5B64, symBinAddr: 0x1000062B4, symSize: 0x28 }
  - { offsetInCU: 0x16B57, offset: 0x16B57, size: 0x8, addend: 0x0, symName: __ZNSt3__114__split_bufferINS_12basic_stringIcNS_11char_traitsIcEENS_9allocatorIcEEEERNS4_IS6_EEE9__end_capB8ue170006Ev, symObjAddr: 0x5B8C, symBinAddr: 0x1000062DC, symSize: 0x28 }
  - { offsetInCU: 0x16B7D, offset: 0x16B7D, size: 0x8, addend: 0x0, symName: __ZNSt3__117__compressed_pairIPNS_12basic_stringIcNS_11char_traitsIcEENS_9allocatorIcEEEERNS4_IS6_EEEC2B8ue170006IDnS9_EEOT_OT0_, symObjAddr: 0x5BB4, symBinAddr: 0x100006304, symSize: 0x48 }
  - { offsetInCU: 0x16BD5, offset: 0x16BD5, size: 0x8, addend: 0x0, symName: __ZNSt3__122__compressed_pair_elemIRNS_9allocatorINS_12basic_stringIcNS_11char_traitsIcEENS1_IcEEEEEELi1ELb0EEC2B8ue170006IS8_vEEOT_, symObjAddr: 0x5BFC, symBinAddr: 0x10000634C, symSize: 0x20 }
  - { offsetInCU: 0x16C17, offset: 0x16C17, size: 0x8, addend: 0x0, symName: __ZNSt3__19allocatorINS_12basic_stringIcNS_11char_traitsIcEENS0_IcEEEEE8allocateB8ue170006Em, symObjAddr: 0x5C1C, symBinAddr: 0x10000636C, symSize: 0x5C }
  - { offsetInCU: 0x16C4B, offset: 0x16C4B, size: 0x8, addend: 0x0, symName: __ZNSt3__117__compressed_pairIPNS_12basic_stringIcNS_11char_traitsIcEENS_9allocatorIcEEEERNS4_IS6_EEE6secondB8ue170006Ev, symObjAddr: 0x5C78, symBinAddr: 0x1000063C8, symSize: 0x28 }
  - { offsetInCU: 0x16C71, offset: 0x16C71, size: 0x8, addend: 0x0, symName: __ZNSt3__122__compressed_pair_elemIRNS_9allocatorINS_12basic_stringIcNS_11char_traitsIcEENS1_IcEEEEEELi1ELb0EE5__getB8ue170006Ev, symObjAddr: 0x5CA0, symBinAddr: 0x1000063F0, symSize: 0x18 }
  - { offsetInCU: 0x16C97, offset: 0x16C97, size: 0x8, addend: 0x0, symName: __ZNSt3__117__compressed_pairIPNS_12basic_stringIcNS_11char_traitsIcEENS_9allocatorIcEEEERNS4_IS6_EEE5firstB8ue170006Ev, symObjAddr: 0x5CB8, symBinAddr: 0x100006408, symSize: 0x24 }
  - { offsetInCU: 0x16CBD, offset: 0x16CBD, size: 0x8, addend: 0x0, symName: __ZNKSt3__16vectorINS_12basic_stringIcNS_11char_traitsIcEENS_9allocatorIcEEEENS4_IS6_EEE17__annotate_deleteB8ue170006Ev, symObjAddr: 0x5CDC, symBinAddr: 0x10000642C, symSize: 0xD4 }
  - { offsetInCU: 0x16CE3, offset: 0x16CE3, size: 0x8, addend: 0x0, symName: __ZNSt3__116reverse_iteratorIPNS_12basic_stringIcNS_11char_traitsIcEENS_9allocatorIcEEEEEC1B8ue170006ES7_, symObjAddr: 0x5EDC, symBinAddr: 0x10000662C, symSize: 0x34 }
  - { offsetInCU: 0x16D1B, offset: 0x16D1B, size: 0x8, addend: 0x0, symName: __ZNKSt3__116reverse_iteratorIPNS_12basic_stringIcNS_11char_traitsIcEENS_9allocatorIcEEEEE4baseB8ue170006Ev, symObjAddr: 0x5F10, symBinAddr: 0x100006660, symSize: 0x18 }
  - { offsetInCU: 0x16D41, offset: 0x16D41, size: 0x8, addend: 0x0, symName: __ZNKSt3__16vectorINS_12basic_stringIcNS_11char_traitsIcEENS_9allocatorIcEEEENS4_IS6_EEE14__annotate_newB8ue170006Em, symObjAddr: 0x5F64, symBinAddr: 0x1000066B4, symSize: 0xC8 }
  - { offsetInCU: 0x16D76, offset: 0x16D76, size: 0x8, addend: 0x0, symName: __ZNKSt3__16vectorINS_12basic_stringIcNS_11char_traitsIcEENS_9allocatorIcEEEENS4_IS6_EEE31__annotate_contiguous_containerB8ue170006EPKvSA_SA_SA_, symObjAddr: 0x602C, symBinAddr: 0x10000677C, symSize: 0x20 }
  - { offsetInCU: 0x16DC8, offset: 0x16DC8, size: 0x8, addend: 0x0, symName: __ZNKSt3__16vectorINS_12basic_stringIcNS_11char_traitsIcEENS_9allocatorIcEEEENS4_IS6_EEE4dataB8ue170006Ev, symObjAddr: 0x604C, symBinAddr: 0x10000679C, symSize: 0x28 }
  - { offsetInCU: 0x16DEE, offset: 0x16DEE, size: 0x8, addend: 0x0, symName: __ZNSt3__129_AllocatorDestroyRangeReverseINS_9allocatorINS_12basic_stringIcNS_11char_traitsIcEENS1_IcEEEEEENS_16reverse_iteratorIPS6_EEEC1B8ue170006ERS7_RSA_SD_, symObjAddr: 0x60C0, symBinAddr: 0x100006810, symSize: 0x44 }
  - { offsetInCU: 0x16E4B, offset: 0x16E4B, size: 0x8, addend: 0x0, symName: __ZNSt3__116allocator_traitsINS_9allocatorINS_12basic_stringIcNS_11char_traitsIcEENS1_IcEEEEEEE9constructB8ue170006IS6_JS6_EvvEEvRS7_PT_DpOT0_, symObjAddr: 0x614C, symBinAddr: 0x10000689C, symSize: 0x30 }
  - { offsetInCU: 0x16E9F, offset: 0x16E9F, size: 0x8, addend: 0x0, symName: __ZNKSt3__116reverse_iteratorIPNS_12basic_stringIcNS_11char_traitsIcEENS_9allocatorIcEEEEEdeB8ue170006Ev, symObjAddr: 0x61A0, symBinAddr: 0x1000068F0, symSize: 0x28 }
  - { offsetInCU: 0x16ED3, offset: 0x16ED3, size: 0x8, addend: 0x0, symName: __ZNSt3__116reverse_iteratorIPNS_12basic_stringIcNS_11char_traitsIcEENS_9allocatorIcEEEEEppB8ue170006Ev, symObjAddr: 0x61C8, symBinAddr: 0x100006918, symSize: 0x20 }
  - { offsetInCU: 0x16EF9, offset: 0x16EF9, size: 0x8, addend: 0x0, symName: __ZNSt3__128__exception_guard_exceptionsINS_29_AllocatorDestroyRangeReverseINS_9allocatorINS_12basic_stringIcNS_11char_traitsIcEENS2_IcEEEEEENS_16reverse_iteratorIPS7_EEEEE10__completeB8ue170006Ev, symObjAddr: 0x61E8, symBinAddr: 0x100006938, symSize: 0x1C }
  - { offsetInCU: 0x16F1F, offset: 0x16F1F, size: 0x8, addend: 0x0, symName: __ZNSt3__128__exception_guard_exceptionsINS_29_AllocatorDestroyRangeReverseINS_9allocatorINS_12basic_stringIcNS_11char_traitsIcEENS2_IcEEEEEENS_16reverse_iteratorIPS7_EEEEED1B8ue170006Ev, symObjAddr: 0x6204, symBinAddr: 0x100006954, symSize: 0x2C }
  - { offsetInCU: 0x16F49, offset: 0x16F49, size: 0x8, addend: 0x0, symName: __ZNSt3__128__exception_guard_exceptionsINS_29_AllocatorDestroyRangeReverseINS_9allocatorINS_12basic_stringIcNS_11char_traitsIcEENS2_IcEEEEEENS_16reverse_iteratorIPS7_EEEEEC1B8ue170006ESC_, symObjAddr: 0x6230, symBinAddr: 0x100006980, symSize: 0x34 }
  - { offsetInCU: 0x16F82, offset: 0x16F82, size: 0x8, addend: 0x0, symName: __ZNSt3__128__exception_guard_exceptionsINS_29_AllocatorDestroyRangeReverseINS_9allocatorINS_12basic_stringIcNS_11char_traitsIcEENS2_IcEEEEEENS_16reverse_iteratorIPS7_EEEEEC2B8ue170006ESC_, symObjAddr: 0x6264, symBinAddr: 0x1000069B4, symSize: 0x30 }
  - { offsetInCU: 0x16FBB, offset: 0x16FBB, size: 0x8, addend: 0x0, symName: __ZNSt3__129_AllocatorDestroyRangeReverseINS_9allocatorINS_12basic_stringIcNS_11char_traitsIcEENS1_IcEEEEEENS_16reverse_iteratorIPS6_EEEC2B8ue170006ERS7_RSA_SD_, symObjAddr: 0x6294, symBinAddr: 0x1000069E4, symSize: 0x38 }
  - { offsetInCU: 0x17012, offset: 0x17012, size: 0x8, addend: 0x0, symName: __ZNSt3__112basic_stringIcNS_11char_traitsIcEENS_9allocatorIcEEEC1B8ue170006EOS5_, symObjAddr: 0x6308, symBinAddr: 0x100006A58, symSize: 0x34 }
  - { offsetInCU: 0x1704B, offset: 0x1704B, size: 0x8, addend: 0x0, symName: __ZNSt3__112basic_stringIcNS_11char_traitsIcEENS_9allocatorIcEEEC2B8ue170006EOS5_, symObjAddr: 0x633C, symBinAddr: 0x100006A8C, symSize: 0x50 }
  - { offsetInCU: 0x17084, offset: 0x17084, size: 0x8, addend: 0x0, symName: __ZNSt3__112basic_stringIcNS_11char_traitsIcEENS_9allocatorIcEEE14__default_initB8ue170006Ev, symObjAddr: 0x638C, symBinAddr: 0x100006ADC, symSize: 0x40 }
  - { offsetInCU: 0x170B0, offset: 0x170B0, size: 0x8, addend: 0x0, symName: __ZNSt3__119__to_address_helperINS_16reverse_iteratorIPNS_12basic_stringIcNS_11char_traitsIcEENS_9allocatorIcEEEEEEvE6__callB8ue170006ERKS9_, symObjAddr: 0x63CC, symBinAddr: 0x100006B1C, symSize: 0x38 }
  - { offsetInCU: 0x170D3, offset: 0x170D3, size: 0x8, addend: 0x0, symName: __ZNKSt3__116reverse_iteratorIPNS_12basic_stringIcNS_11char_traitsIcEENS_9allocatorIcEEEEEptB8ue170006Ev, symObjAddr: 0x6404, symBinAddr: 0x100006B54, symSize: 0x2C }
  - { offsetInCU: 0x170F9, offset: 0x170F9, size: 0x8, addend: 0x0, symName: __ZNSt3__128__exception_guard_exceptionsINS_29_AllocatorDestroyRangeReverseINS_9allocatorINS_12basic_stringIcNS_11char_traitsIcEENS2_IcEEEEEENS_16reverse_iteratorIPS7_EEEEED2B8ue170006Ev, symObjAddr: 0x64E8, symBinAddr: 0x100006C38, symSize: 0x50 }
  - { offsetInCU: 0x17123, offset: 0x17123, size: 0x8, addend: 0x0, symName: __ZNKSt3__129_AllocatorDestroyRangeReverseINS_9allocatorINS_12basic_stringIcNS_11char_traitsIcEENS1_IcEEEEEENS_16reverse_iteratorIPS6_EEEclB8ue170006Ev, symObjAddr: 0x6538, symBinAddr: 0x100006C88, symSize: 0xB4 }
  - { offsetInCU: 0x1714A, offset: 0x1714A, size: 0x8, addend: 0x0, symName: __ZNSt3__116reverse_iteratorINS0_IPNS_12basic_stringIcNS_11char_traitsIcEENS_9allocatorIcEEEEEEEC1B8ue170006ES8_, symObjAddr: 0x665C, symBinAddr: 0x100006DAC, symSize: 0x3C }
  - { offsetInCU: 0x17182, offset: 0x17182, size: 0x8, addend: 0x0, symName: __ZNSt3__116allocator_traitsINS_9allocatorINS_12basic_stringIcNS_11char_traitsIcEENS1_IcEEEEEEE7destroyB8ue170006IS6_vvEEvRS7_PT_, symObjAddr: 0x66F8, symBinAddr: 0x100006E48, symSize: 0x28 }
  - { offsetInCU: 0x171BC, offset: 0x171BC, size: 0x8, addend: 0x0, symName: __ZNSt3__116reverse_iteratorINS0_IPNS_12basic_stringIcNS_11char_traitsIcEENS_9allocatorIcEEEEEEEppB8ue170006Ev, symObjAddr: 0x6744, symBinAddr: 0x100006E94, symSize: 0x30 }
  - { offsetInCU: 0x171E2, offset: 0x171E2, size: 0x8, addend: 0x0, symName: __ZNKSt3__116reverse_iteratorINS0_IPNS_12basic_stringIcNS_11char_traitsIcEENS_9allocatorIcEEEEEEE4baseB8ue170006Ev, symObjAddr: 0x6774, symBinAddr: 0x100006EC4, symSize: 0x24 }
  - { offsetInCU: 0x1720E, offset: 0x1720E, size: 0x8, addend: 0x0, symName: __ZNSt3__119__to_address_helperINS_16reverse_iteratorINS1_IPNS_12basic_stringIcNS_11char_traitsIcEENS_9allocatorIcEEEEEEEEvE6__callB8ue170006ERKSA_, symObjAddr: 0x67E0, symBinAddr: 0x100006F30, symSize: 0x38 }
  - { offsetInCU: 0x17231, offset: 0x17231, size: 0x8, addend: 0x0, symName: __ZNKSt3__116reverse_iteratorINS0_IPNS_12basic_stringIcNS_11char_traitsIcEENS_9allocatorIcEEEEEEEptB8ue170006Ev, symObjAddr: 0x6818, symBinAddr: 0x100006F68, symSize: 0x4C }
  - { offsetInCU: 0x17257, offset: 0x17257, size: 0x8, addend: 0x0, symName: __ZNSt3__116reverse_iteratorIPNS_12basic_stringIcNS_11char_traitsIcEENS_9allocatorIcEEEEEpLB8ue170006El, symObjAddr: 0x6914, symBinAddr: 0x100007064, symSize: 0x30 }
  - { offsetInCU: 0x1728B, offset: 0x1728B, size: 0x8, addend: 0x0, symName: __ZNSt3__116reverse_iteratorIPNS_12basic_stringIcNS_11char_traitsIcEENS_9allocatorIcEEEEEmmB8ue170006Ev, symObjAddr: 0x6944, symBinAddr: 0x100007094, symSize: 0x20 }
  - { offsetInCU: 0x172B1, offset: 0x172B1, size: 0x8, addend: 0x0, symName: __ZNSt3__116reverse_iteratorINS0_IPNS_12basic_stringIcNS_11char_traitsIcEENS_9allocatorIcEEEEEEEC2B8ue170006ES8_, symObjAddr: 0x6964, symBinAddr: 0x1000070B4, symSize: 0x2C }
  - { offsetInCU: 0x172E9, offset: 0x172E9, size: 0x8, addend: 0x0, symName: __ZNSt3__116reverse_iteratorIPNS_12basic_stringIcNS_11char_traitsIcEENS_9allocatorIcEEEEEC2B8ue170006ES7_, symObjAddr: 0x6990, symBinAddr: 0x1000070E0, symSize: 0x28 }
  - { offsetInCU: 0x17321, offset: 0x17321, size: 0x8, addend: 0x0, symName: __ZNSt3__114__split_bufferINS_12basic_stringIcNS_11char_traitsIcEENS_9allocatorIcEEEERNS4_IS6_EEED2Ev, symObjAddr: 0x69B8, symBinAddr: 0x100007108, symSize: 0x8C }
  - { offsetInCU: 0x1734D, offset: 0x1734D, size: 0x8, addend: 0x0, symName: __ZNSt3__114__split_bufferINS_12basic_stringIcNS_11char_traitsIcEENS_9allocatorIcEEEERNS4_IS6_EEE5clearB8ue170006Ev, symObjAddr: 0x6A44, symBinAddr: 0x100007194, symSize: 0x28 }
  - { offsetInCU: 0x17373, offset: 0x17373, size: 0x8, addend: 0x0, symName: __ZNSt3__116allocator_traitsINS_9allocatorINS_12basic_stringIcNS_11char_traitsIcEENS1_IcEEEEEEE10deallocateB8ue170006ERS7_PS6_m, symObjAddr: 0x6A6C, symBinAddr: 0x1000071BC, symSize: 0x34 }
  - { offsetInCU: 0x173B5, offset: 0x173B5, size: 0x8, addend: 0x0, symName: __ZNKSt3__114__split_bufferINS_12basic_stringIcNS_11char_traitsIcEENS_9allocatorIcEEEERNS4_IS6_EEE8capacityB8ue170006Ev, symObjAddr: 0x6AA0, symBinAddr: 0x1000071F0, symSize: 0x40 }
  - { offsetInCU: 0x173DB, offset: 0x173DB, size: 0x8, addend: 0x0, symName: __ZNSt3__114__split_bufferINS_12basic_stringIcNS_11char_traitsIcEENS_9allocatorIcEEEERNS4_IS6_EEE17__destruct_at_endB8ue170006EPS6_, symObjAddr: 0x6AE0, symBinAddr: 0x100007230, symSize: 0x2C }
  - { offsetInCU: 0x1740F, offset: 0x1740F, size: 0x8, addend: 0x0, symName: __ZNSt3__114__split_bufferINS_12basic_stringIcNS_11char_traitsIcEENS_9allocatorIcEEEERNS4_IS6_EEE17__destruct_at_endB8ue170006EPS6_NS_17integral_constantIbLb0EEE, symObjAddr: 0x6B0C, symBinAddr: 0x10000725C, symSize: 0x80 }
  - { offsetInCU: 0x1744F, offset: 0x1744F, size: 0x8, addend: 0x0, symName: __ZNSt3__19allocatorINS_12basic_stringIcNS_11char_traitsIcEENS0_IcEEEEE10deallocateB8ue170006EPS5_m, symObjAddr: 0x6B8C, symBinAddr: 0x1000072DC, symSize: 0x44 }
  - { offsetInCU: 0x17491, offset: 0x17491, size: 0x8, addend: 0x0, symName: __ZNKSt3__114__split_bufferINS_12basic_stringIcNS_11char_traitsIcEENS_9allocatorIcEEEERNS4_IS6_EEE9__end_capB8ue170006Ev, symObjAddr: 0x6BD0, symBinAddr: 0x100007320, symSize: 0x28 }
  - { offsetInCU: 0x174B7, offset: 0x174B7, size: 0x8, addend: 0x0, symName: __ZNKSt3__117__compressed_pairIPNS_12basic_stringIcNS_11char_traitsIcEENS_9allocatorIcEEEERNS4_IS6_EEE5firstB8ue170006Ev, symObjAddr: 0x6BF8, symBinAddr: 0x100007348, symSize: 0x24 }
  - { offsetInCU: 0x174DD, offset: 0x174DD, size: 0x8, addend: 0x0, symName: __ZNSt3__16vectorINS0_INS_12basic_stringIcNS_11char_traitsIcEENS_9allocatorIcEEEENS4_IS6_EEEENS4_IS8_EEEC2B8ue170006Ev, symObjAddr: 0x6C1C, symBinAddr: 0x10000736C, symSize: 0x4C }
  - { offsetInCU: 0x17507, offset: 0x17507, size: 0x8, addend: 0x0, symName: __ZNSt3__117__compressed_pairIPNS_6vectorINS_12basic_stringIcNS_11char_traitsIcEENS_9allocatorIcEEEENS5_IS7_EEEENS5_IS9_EEEC1B8ue170006IDnNS_18__default_init_tagEEEOT_OT0_, symObjAddr: 0x6C68, symBinAddr: 0x1000073B8, symSize: 0x3C }
  - { offsetInCU: 0x1755F, offset: 0x1755F, size: 0x8, addend: 0x0, symName: __ZNSt3__117__compressed_pairIPNS_6vectorINS_12basic_stringIcNS_11char_traitsIcEENS_9allocatorIcEEEENS5_IS7_EEEENS5_IS9_EEEC2B8ue170006IDnNS_18__default_init_tagEEEOT_OT0_, symObjAddr: 0x6CA4, symBinAddr: 0x1000073F4, symSize: 0x40 }
  - { offsetInCU: 0x175B7, offset: 0x175B7, size: 0x8, addend: 0x0, symName: __ZNSt3__122__compressed_pair_elemIPNS_6vectorINS_12basic_stringIcNS_11char_traitsIcEENS_9allocatorIcEEEENS5_IS7_EEEELi0ELb0EEC2B8ue170006IDnvEEOT_, symObjAddr: 0x6CE4, symBinAddr: 0x100007434, symSize: 0x1C }
  - { offsetInCU: 0x175F9, offset: 0x175F9, size: 0x8, addend: 0x0, symName: __ZNSt3__122__compressed_pair_elemINS_9allocatorINS_6vectorINS_12basic_stringIcNS_11char_traitsIcEENS1_IcEEEENS1_IS7_EEEEEELi1ELb1EEC2B8ue170006ENS_18__default_init_tagE, symObjAddr: 0x6D00, symBinAddr: 0x100007450, symSize: 0x2C }
  - { offsetInCU: 0x1762D, offset: 0x1762D, size: 0x8, addend: 0x0, symName: __ZNSt3__19allocatorINS_6vectorINS_12basic_stringIcNS_11char_traitsIcEENS0_IcEEEENS0_IS6_EEEEEC2B8ue170006Ev, symObjAddr: 0x6D2C, symBinAddr: 0x10000747C, symSize: 0x2C }
  - { offsetInCU: 0x17657, offset: 0x17657, size: 0x8, addend: 0x0, symName: __ZNSt3__116__non_trivial_ifILb1ENS_9allocatorINS_6vectorINS_12basic_stringIcNS_11char_traitsIcEENS1_IcEEEENS1_IS7_EEEEEEEC2B8ue170006Ev, symObjAddr: 0x6D58, symBinAddr: 0x1000074A8, symSize: 0x14 }
  - { offsetInCU: 0x17681, offset: 0x17681, size: 0x8, addend: 0x0, symName: __ZNSt3__112__hash_tableINS_17__hash_value_typeINS_12basic_stringIcNS_11char_traitsIcEENS_9allocatorIcEEEENS_6vectorIS7_NS5_IS7_EEEEEENS_22__unordered_map_hasherIS7_SB_NS_4hashIS7_EENS_8equal_toIS7_EELb1EEENS_21__unordered_map_equalIS7_SB_SG_SE_Lb1EEENS5_ISB_EEE5beginEv, symObjAddr: 0x6D6C, symBinAddr: 0x1000074BC, symSize: 0x38 }
  - { offsetInCU: 0x176A9, offset: 0x176A9, size: 0x8, addend: 0x0, symName: __ZNSt3__119__hash_map_iteratorINS_15__hash_iteratorIPNS_11__hash_nodeINS_17__hash_value_typeINS_12basic_stringIcNS_11char_traitsIcEENS_9allocatorIcEEEENS_6vectorIS9_NS7_IS9_EEEEEEPvEEEEEC1B8ue170006ESH_, symObjAddr: 0x6DA4, symBinAddr: 0x1000074F4, symSize: 0x34 }
  - { offsetInCU: 0x176E2, offset: 0x176E2, size: 0x8, addend: 0x0, symName: __ZNSt3__119__hash_map_iteratorINS_15__hash_iteratorIPNS_11__hash_nodeINS_17__hash_value_typeINS_12basic_stringIcNS_11char_traitsIcEENS_9allocatorIcEEEENS_6vectorIS9_NS7_IS9_EEEEEEPvEEEEEC2B8ue170006ESH_, symObjAddr: 0x6DD8, symBinAddr: 0x100007528, symSize: 0x20 }
  - { offsetInCU: 0x1771B, offset: 0x1771B, size: 0x8, addend: 0x0, symName: __ZNSt3__112__hash_tableINS_17__hash_value_typeINS_12basic_stringIcNS_11char_traitsIcEENS_9allocatorIcEEEENS_6vectorIS7_NS5_IS7_EEEEEENS_22__unordered_map_hasherIS7_SB_NS_4hashIS7_EENS_8equal_toIS7_EELb1EEENS_21__unordered_map_equalIS7_SB_SG_SE_Lb1EEENS5_ISB_EEE3endEv, symObjAddr: 0x6DF8, symBinAddr: 0x100007548, symSize: 0x2C }
  - { offsetInCU: 0x17743, offset: 0x17743, size: 0x8, addend: 0x0, symName: __ZNSt3__16vectorINS0_INS_12basic_stringIcNS_11char_traitsIcEENS_9allocatorIcEEEENS4_IS6_EEEENS4_IS8_EEE9__end_capB8ue170006Ev, symObjAddr: 0x6E54, symBinAddr: 0x1000075A4, symSize: 0x28 }
  - { offsetInCU: 0x17769, offset: 0x17769, size: 0x8, addend: 0x0, symName: __ZNSt3__16vectorINS0_INS_12basic_stringIcNS_11char_traitsIcEENS_9allocatorIcEEEENS4_IS6_EEEENS4_IS8_EEE22__construct_one_at_endB8ue170006IJRKS8_EEEvDpOT_, symObjAddr: 0x6E7C, symBinAddr: 0x1000075CC, symSize: 0x90 }
  - { offsetInCU: 0x177B8, offset: 0x177B8, size: 0x8, addend: 0x0, symName: __ZNSt3__16vectorINS0_INS_12basic_stringIcNS_11char_traitsIcEENS_9allocatorIcEEEENS4_IS6_EEEENS4_IS8_EEE21__push_back_slow_pathIRKS8_EEvOT_, symObjAddr: 0x6F0C, symBinAddr: 0x10000765C, symSize: 0xD8 }
  - { offsetInCU: 0x17816, offset: 0x17816, size: 0x8, addend: 0x0, symName: __ZNSt3__117__compressed_pairIPNS_6vectorINS_12basic_stringIcNS_11char_traitsIcEENS_9allocatorIcEEEENS5_IS7_EEEENS5_IS9_EEE5firstB8ue170006Ev, symObjAddr: 0x6FE4, symBinAddr: 0x100007734, symSize: 0x24 }
  - { offsetInCU: 0x1783C, offset: 0x1783C, size: 0x8, addend: 0x0, symName: __ZNSt3__122__compressed_pair_elemIPNS_6vectorINS_12basic_stringIcNS_11char_traitsIcEENS_9allocatorIcEEEENS5_IS7_EEEELi0ELb0EE5__getB8ue170006Ev, symObjAddr: 0x7008, symBinAddr: 0x100007758, symSize: 0x14 }
  - { offsetInCU: 0x1787D, offset: 0x1787D, size: 0x8, addend: 0x0, symName: __ZNSt3__16vectorINS0_INS_12basic_stringIcNS_11char_traitsIcEENS_9allocatorIcEEEENS4_IS6_EEEENS4_IS8_EEE21_ConstructTransactionC1B8ue170006ERSA_m, symObjAddr: 0x701C, symBinAddr: 0x10000776C, symSize: 0x3C }
  - { offsetInCU: 0x178C5, offset: 0x178C5, size: 0x8, addend: 0x0, symName: __ZNSt3__116allocator_traitsINS_9allocatorINS_6vectorINS_12basic_stringIcNS_11char_traitsIcEENS1_IcEEEENS1_IS7_EEEEEEE9constructB8ue170006IS9_JRKS9_EvvEEvRSA_PT_DpOT0_, symObjAddr: 0x7058, symBinAddr: 0x1000077A8, symSize: 0x30 }
  - { offsetInCU: 0x17919, offset: 0x17919, size: 0x8, addend: 0x0, symName: __ZNSt3__16vectorINS0_INS_12basic_stringIcNS_11char_traitsIcEENS_9allocatorIcEEEENS4_IS6_EEEENS4_IS8_EEE7__allocB8ue170006Ev, symObjAddr: 0x7088, symBinAddr: 0x1000077D8, symSize: 0x28 }
  - { offsetInCU: 0x1793F, offset: 0x1793F, size: 0x8, addend: 0x0, symName: __ZNSt3__16vectorINS0_INS_12basic_stringIcNS_11char_traitsIcEENS_9allocatorIcEEEENS4_IS6_EEEENS4_IS8_EEE21_ConstructTransactionD1B8ue170006Ev, symObjAddr: 0x70C4, symBinAddr: 0x100007814, symSize: 0x2C }
  - { offsetInCU: 0x17969, offset: 0x17969, size: 0x8, addend: 0x0, symName: __ZNSt3__16vectorINS0_INS_12basic_stringIcNS_11char_traitsIcEENS_9allocatorIcEEEENS4_IS6_EEEENS4_IS8_EEE21_ConstructTransactionC2B8ue170006ERSA_m, symObjAddr: 0x70F0, symBinAddr: 0x100007840, symSize: 0x4C }
  - { offsetInCU: 0x179B1, offset: 0x179B1, size: 0x8, addend: 0x0, symName: __ZNSt3__16vectorINS_12basic_stringIcNS_11char_traitsIcEENS_9allocatorIcEEEENS4_IS6_EEEC1ERKS8_, symObjAddr: 0x7178, symBinAddr: 0x1000078C8, symSize: 0x34 }
  - { offsetInCU: 0x179EC, offset: 0x179EC, size: 0x8, addend: 0x0, symName: __ZNSt3__16vectorINS_12basic_stringIcNS_11char_traitsIcEENS_9allocatorIcEEEENS4_IS6_EEEC2ERKS8_, symObjAddr: 0x71AC, symBinAddr: 0x1000078FC, symSize: 0x94 }
  - { offsetInCU: 0x17A27, offset: 0x17A27, size: 0x8, addend: 0x0, symName: __ZNSt3__116allocator_traitsINS_9allocatorINS_12basic_stringIcNS_11char_traitsIcEENS1_IcEEEEEEE37select_on_container_copy_constructionB8ue170006IS7_vvEES7_RKS7_, symObjAddr: 0x7240, symBinAddr: 0x100007990, symSize: 0x10 }
  - { offsetInCU: 0x17A5C, offset: 0x17A5C, size: 0x8, addend: 0x0, symName: __ZNSt3__117__compressed_pairIPNS_12basic_stringIcNS_11char_traitsIcEENS_9allocatorIcEEEENS4_IS6_EEEC1B8ue170006IDnS8_EEOT_OT0_, symObjAddr: 0x7250, symBinAddr: 0x1000079A0, symSize: 0x3C }
  - { offsetInCU: 0x17AB4, offset: 0x17AB4, size: 0x8, addend: 0x0, symName: __ZNSt3__16vectorINS_12basic_stringIcNS_11char_traitsIcEENS_9allocatorIcEEEENS4_IS6_EEE16__init_with_sizeB8ue170006IPS6_SA_EEvT_T0_m, symObjAddr: 0x728C, symBinAddr: 0x1000079DC, symSize: 0xB8 }
  - { offsetInCU: 0x17B28, offset: 0x17B28, size: 0x8, addend: 0x0, symName: __ZNSt3__117__compressed_pairIPNS_12basic_stringIcNS_11char_traitsIcEENS_9allocatorIcEEEENS4_IS6_EEEC2B8ue170006IDnS8_EEOT_OT0_, symObjAddr: 0x7344, symBinAddr: 0x100007A94, symSize: 0x44 }
  - { offsetInCU: 0x17B80, offset: 0x17B80, size: 0x8, addend: 0x0, symName: __ZNSt3__122__compressed_pair_elemINS_9allocatorINS_12basic_stringIcNS_11char_traitsIcEENS1_IcEEEEEELi1ELb1EEC2B8ue170006IS7_vEEOT_, symObjAddr: 0x7388, symBinAddr: 0x100007AD8, symSize: 0x18 }
  - { offsetInCU: 0x17BC2, offset: 0x17BC2, size: 0x8, addend: 0x0, symName: __ZNSt3__16vectorINS_12basic_stringIcNS_11char_traitsIcEENS_9allocatorIcEEEENS4_IS6_EEE16__destroy_vectorC1B8ue170006ERS8_, symObjAddr: 0x73E0, symBinAddr: 0x100007B30, symSize: 0x34 }
  - { offsetInCU: 0x17BFB, offset: 0x17BFB, size: 0x8, addend: 0x0, symName: __ZNSt3__16vectorINS_12basic_stringIcNS_11char_traitsIcEENS_9allocatorIcEEEENS4_IS6_EEE11__vallocateB8ue170006Em, symObjAddr: 0x7414, symBinAddr: 0x100007B64, symSize: 0xB4 }
  - { offsetInCU: 0x17C3F, offset: 0x17C3F, size: 0x8, addend: 0x0, symName: __ZNSt3__16vectorINS_12basic_stringIcNS_11char_traitsIcEENS_9allocatorIcEEEENS4_IS6_EEE18__construct_at_endIPS6_SA_EEvT_T0_m, symObjAddr: 0x74C8, symBinAddr: 0x100007C18, symSize: 0x8C }
  - { offsetInCU: 0x17CB5, offset: 0x17CB5, size: 0x8, addend: 0x0, symName: __ZNSt3__128__exception_guard_exceptionsINS_6vectorINS_12basic_stringIcNS_11char_traitsIcEENS_9allocatorIcEEEENS5_IS7_EEE16__destroy_vectorEE10__completeB8ue170006Ev, symObjAddr: 0x7554, symBinAddr: 0x100007CA4, symSize: 0x1C }
  - { offsetInCU: 0x17CDB, offset: 0x17CDB, size: 0x8, addend: 0x0, symName: __ZNSt3__128__exception_guard_exceptionsINS_6vectorINS_12basic_stringIcNS_11char_traitsIcEENS_9allocatorIcEEEENS5_IS7_EEE16__destroy_vectorEED1B8ue170006Ev, symObjAddr: 0x7570, symBinAddr: 0x100007CC0, symSize: 0x2C }
  - { offsetInCU: 0x17D05, offset: 0x17D05, size: 0x8, addend: 0x0, symName: __ZNSt3__128__exception_guard_exceptionsINS_6vectorINS_12basic_stringIcNS_11char_traitsIcEENS_9allocatorIcEEEENS5_IS7_EEE16__destroy_vectorEEC1B8ue170006ESA_, symObjAddr: 0x759C, symBinAddr: 0x100007CEC, symSize: 0x34 }
  - { offsetInCU: 0x17D3D, offset: 0x17D3D, size: 0x8, addend: 0x0, symName: __ZNSt3__128__exception_guard_exceptionsINS_6vectorINS_12basic_stringIcNS_11char_traitsIcEENS_9allocatorIcEEEENS5_IS7_EEE16__destroy_vectorEEC2B8ue170006ESA_, symObjAddr: 0x75D0, symBinAddr: 0x100007D20, symSize: 0x24 }
  - { offsetInCU: 0x17D75, offset: 0x17D75, size: 0x8, addend: 0x0, symName: __ZNSt3__16vectorINS_12basic_stringIcNS_11char_traitsIcEENS_9allocatorIcEEEENS4_IS6_EEE16__destroy_vectorC2B8ue170006ERS8_, symObjAddr: 0x75F4, symBinAddr: 0x100007D44, symSize: 0x20 }
  - { offsetInCU: 0x17DCA, offset: 0x17DCA, size: 0x8, addend: 0x0, symName: __ZNSt3__119__unwrap_range_implIPNS_12basic_stringIcNS_11char_traitsIcEENS_9allocatorIcEEEES7_E8__unwrapB8ue170006ES7_S7_, symObjAddr: 0x7824, symBinAddr: 0x100007F74, symSize: 0x58 }
  - { offsetInCU: 0x17E01, offset: 0x17E01, size: 0x8, addend: 0x0, symName: __ZNSt3__14pairIPNS_12basic_stringIcNS_11char_traitsIcEENS_9allocatorIcEEEES7_EC1B8ue170006IS7_S7_LPv0EEEOT_OT0_, symObjAddr: 0x787C, symBinAddr: 0x100007FCC, symSize: 0x3C }
  - { offsetInCU: 0x17E5F, offset: 0x17E5F, size: 0x8, addend: 0x0, symName: __ZNSt3__14pairIPNS_12basic_stringIcNS_11char_traitsIcEENS_9allocatorIcEEEES7_EC2B8ue170006IS7_S7_LPv0EEEOT_OT0_, symObjAddr: 0x78B8, symBinAddr: 0x100008008, symSize: 0x34 }
  - { offsetInCU: 0x17EBD, offset: 0x17EBD, size: 0x8, addend: 0x0, symName: __ZNSt3__129_AllocatorDestroyRangeReverseINS_9allocatorINS_12basic_stringIcNS_11char_traitsIcEENS1_IcEEEEEEPS6_EC1B8ue170006ERS7_RS8_SB_, symObjAddr: 0x7938, symBinAddr: 0x100008088, symSize: 0x44 }
  - { offsetInCU: 0x17F14, offset: 0x17F14, size: 0x8, addend: 0x0, symName: __ZNSt3__116allocator_traitsINS_9allocatorINS_12basic_stringIcNS_11char_traitsIcEENS1_IcEEEEEEE9constructB8ue170006IS6_JRS6_EvvEEvRS7_PT_DpOT0_, symObjAddr: 0x797C, symBinAddr: 0x1000080CC, symSize: 0x30 }
  - { offsetInCU: 0x17F68, offset: 0x17F68, size: 0x8, addend: 0x0, symName: __ZNSt3__128__exception_guard_exceptionsINS_29_AllocatorDestroyRangeReverseINS_9allocatorINS_12basic_stringIcNS_11char_traitsIcEENS2_IcEEEEEEPS7_EEE10__completeB8ue170006Ev, symObjAddr: 0x79AC, symBinAddr: 0x1000080FC, symSize: 0x1C }
  - { offsetInCU: 0x17F8E, offset: 0x17F8E, size: 0x8, addend: 0x0, symName: __ZNSt3__128__exception_guard_exceptionsINS_29_AllocatorDestroyRangeReverseINS_9allocatorINS_12basic_stringIcNS_11char_traitsIcEENS2_IcEEEEEEPS7_EEED1B8ue170006Ev, symObjAddr: 0x79C8, symBinAddr: 0x100008118, symSize: 0x2C }
  - { offsetInCU: 0x17FB8, offset: 0x17FB8, size: 0x8, addend: 0x0, symName: __ZNSt3__128__exception_guard_exceptionsINS_29_AllocatorDestroyRangeReverseINS_9allocatorINS_12basic_stringIcNS_11char_traitsIcEENS2_IcEEEEEEPS7_EEEC1B8ue170006ESA_, symObjAddr: 0x79F4, symBinAddr: 0x100008144, symSize: 0x34 }
  - { offsetInCU: 0x17FF1, offset: 0x17FF1, size: 0x8, addend: 0x0, symName: __ZNSt3__128__exception_guard_exceptionsINS_29_AllocatorDestroyRangeReverseINS_9allocatorINS_12basic_stringIcNS_11char_traitsIcEENS2_IcEEEEEEPS7_EEEC2B8ue170006ESA_, symObjAddr: 0x7A28, symBinAddr: 0x100008178, symSize: 0x30 }
  - { offsetInCU: 0x1802A, offset: 0x1802A, size: 0x8, addend: 0x0, symName: __ZNSt3__129_AllocatorDestroyRangeReverseINS_9allocatorINS_12basic_stringIcNS_11char_traitsIcEENS1_IcEEEEEEPS6_EC2B8ue170006ERS7_RS8_SB_, symObjAddr: 0x7A58, symBinAddr: 0x1000081A8, symSize: 0x38 }
  - { offsetInCU: 0x18081, offset: 0x18081, size: 0x8, addend: 0x0, symName: __ZNSt3__128__exception_guard_exceptionsINS_29_AllocatorDestroyRangeReverseINS_9allocatorINS_12basic_stringIcNS_11char_traitsIcEENS2_IcEEEEEEPS7_EEED2B8ue170006Ev, symObjAddr: 0x7ACC, symBinAddr: 0x10000821C, symSize: 0x50 }
  - { offsetInCU: 0x180AB, offset: 0x180AB, size: 0x8, addend: 0x0, symName: __ZNKSt3__129_AllocatorDestroyRangeReverseINS_9allocatorINS_12basic_stringIcNS_11char_traitsIcEENS1_IcEEEEEEPS6_EclB8ue170006Ev, symObjAddr: 0x7B1C, symBinAddr: 0x10000826C, symSize: 0x68 }
  - { offsetInCU: 0x180D1, offset: 0x180D1, size: 0x8, addend: 0x0, symName: __ZNSt3__118__unwrap_iter_implIPNS_12basic_stringIcNS_11char_traitsIcEENS_9allocatorIcEEEELb1EE8__unwrapB8ue170006ES7_, symObjAddr: 0x7BF4, symBinAddr: 0x100008344, symSize: 0x24 }
  - { offsetInCU: 0x180F4, offset: 0x180F4, size: 0x8, addend: 0x0, symName: __ZNSt3__118__unwrap_iter_implIPNS_12basic_stringIcNS_11char_traitsIcEENS_9allocatorIcEEEELb1EE8__rewrapB8ue170006ES7_S7_, symObjAddr: 0x7C18, symBinAddr: 0x100008368, symSize: 0x58 }
  - { offsetInCU: 0x18125, offset: 0x18125, size: 0x8, addend: 0x0, symName: __ZNSt3__128__exception_guard_exceptionsINS_6vectorINS_12basic_stringIcNS_11char_traitsIcEENS_9allocatorIcEEEENS5_IS7_EEE16__destroy_vectorEED2B8ue170006Ev, symObjAddr: 0x7C70, symBinAddr: 0x1000083C0, symSize: 0x50 }
  - { offsetInCU: 0x1814F, offset: 0x1814F, size: 0x8, addend: 0x0, symName: __ZNSt3__16vectorINS_12basic_stringIcNS_11char_traitsIcEENS_9allocatorIcEEEENS4_IS6_EEE16__destroy_vectorclB8ue170006Ev, symObjAddr: 0x7CC0, symBinAddr: 0x100008410, symSize: 0x90 }
  - { offsetInCU: 0x18175, offset: 0x18175, size: 0x8, addend: 0x0, symName: __ZNSt3__16vectorINS_12basic_stringIcNS_11char_traitsIcEENS_9allocatorIcEEEENS4_IS6_EEE7__clearB8ue170006Ev, symObjAddr: 0x7D50, symBinAddr: 0x1000084A0, symSize: 0x28 }
  - { offsetInCU: 0x1819B, offset: 0x1819B, size: 0x8, addend: 0x0, symName: __ZNSt3__16vectorINS_12basic_stringIcNS_11char_traitsIcEENS_9allocatorIcEEEENS4_IS6_EEE22__base_destruct_at_endB8ue170006EPS6_, symObjAddr: 0x7D78, symBinAddr: 0x1000084C8, symSize: 0x8C }
  - { offsetInCU: 0x181DF, offset: 0x181DF, size: 0x8, addend: 0x0, symName: __ZNSt3__117__compressed_pairIPNS_6vectorINS_12basic_stringIcNS_11char_traitsIcEENS_9allocatorIcEEEENS5_IS7_EEEENS5_IS9_EEE6secondB8ue170006Ev, symObjAddr: 0x7E04, symBinAddr: 0x100008554, symSize: 0x24 }
  - { offsetInCU: 0x18205, offset: 0x18205, size: 0x8, addend: 0x0, symName: __ZNSt3__122__compressed_pair_elemINS_9allocatorINS_6vectorINS_12basic_stringIcNS_11char_traitsIcEENS1_IcEEEENS1_IS7_EEEEEELi1ELb1EE5__getB8ue170006Ev, symObjAddr: 0x7E28, symBinAddr: 0x100008578, symSize: 0x14 }
  - { offsetInCU: 0x1822B, offset: 0x1822B, size: 0x8, addend: 0x0, symName: __ZNSt3__16vectorINS0_INS_12basic_stringIcNS_11char_traitsIcEENS_9allocatorIcEEEENS4_IS6_EEEENS4_IS8_EEE21_ConstructTransactionD2B8ue170006Ev, symObjAddr: 0x7E3C, symBinAddr: 0x10000858C, symSize: 0x20 }
  - { offsetInCU: 0x18255, offset: 0x18255, size: 0x8, addend: 0x0, symName: __ZNKSt3__16vectorINS0_INS_12basic_stringIcNS_11char_traitsIcEENS_9allocatorIcEEEENS4_IS6_EEEENS4_IS8_EEE11__recommendB8ue170006Em, symObjAddr: 0x7E5C, symBinAddr: 0x1000085AC, symSize: 0xB4 }
  - { offsetInCU: 0x182AA, offset: 0x182AA, size: 0x8, addend: 0x0, symName: __ZNKSt3__16vectorINS0_INS_12basic_stringIcNS_11char_traitsIcEENS_9allocatorIcEEEENS4_IS6_EEEENS4_IS8_EEE4sizeB8ue170006Ev, symObjAddr: 0x7F10, symBinAddr: 0x100008660, symSize: 0x28 }
  - { offsetInCU: 0x182D0, offset: 0x182D0, size: 0x8, addend: 0x0, symName: __ZNSt3__114__split_bufferINS_6vectorINS_12basic_stringIcNS_11char_traitsIcEENS_9allocatorIcEEEENS5_IS7_EEEERNS5_IS9_EEEC1EmmSB_, symObjAddr: 0x7F38, symBinAddr: 0x100008688, symSize: 0x44 }
  - { offsetInCU: 0x18326, offset: 0x18326, size: 0x8, addend: 0x0, symName: __ZNSt3__114__split_bufferINS_6vectorINS_12basic_stringIcNS_11char_traitsIcEENS_9allocatorIcEEEENS5_IS7_EEEERNS5_IS9_EEED1Ev, symObjAddr: 0x808C, symBinAddr: 0x1000087DC, symSize: 0x2C }
  - { offsetInCU: 0x18352, offset: 0x18352, size: 0x8, addend: 0x0, symName: __ZNKSt3__16vectorINS0_INS_12basic_stringIcNS_11char_traitsIcEENS_9allocatorIcEEEENS4_IS6_EEEENS4_IS8_EEE8max_sizeEv, symObjAddr: 0x80B8, symBinAddr: 0x100008808, symSize: 0x60 }
  - { offsetInCU: 0x1837A, offset: 0x1837A, size: 0x8, addend: 0x0, symName: __ZNKSt3__16vectorINS0_INS_12basic_stringIcNS_11char_traitsIcEENS_9allocatorIcEEEENS4_IS6_EEEENS4_IS8_EEE20__throw_length_errorB8ue170006Ev, symObjAddr: 0x8118, symBinAddr: 0x100008868, symSize: 0x1C }
  - { offsetInCU: 0x183A0, offset: 0x183A0, size: 0x8, addend: 0x0, symName: __ZNKSt3__16vectorINS0_INS_12basic_stringIcNS_11char_traitsIcEENS_9allocatorIcEEEENS4_IS6_EEEENS4_IS8_EEE8capacityB8ue170006Ev, symObjAddr: 0x8134, symBinAddr: 0x100008884, symSize: 0x40 }
  - { offsetInCU: 0x183D1, offset: 0x183D1, size: 0x8, addend: 0x0, symName: __ZNSt3__116allocator_traitsINS_9allocatorINS_6vectorINS_12basic_stringIcNS_11char_traitsIcEENS1_IcEEEENS1_IS7_EEEEEEE8max_sizeB8ue170006ISA_vvEEmRKSA_, symObjAddr: 0x8174, symBinAddr: 0x1000088C4, symSize: 0x28 }
  - { offsetInCU: 0x183FC, offset: 0x183FC, size: 0x8, addend: 0x0, symName: __ZNKSt3__16vectorINS0_INS_12basic_stringIcNS_11char_traitsIcEENS_9allocatorIcEEEENS4_IS6_EEEENS4_IS8_EEE7__allocB8ue170006Ev, symObjAddr: 0x819C, symBinAddr: 0x1000088EC, symSize: 0x28 }
  - { offsetInCU: 0x18422, offset: 0x18422, size: 0x8, addend: 0x0, symName: __ZNKSt3__117__compressed_pairIPNS_6vectorINS_12basic_stringIcNS_11char_traitsIcEENS_9allocatorIcEEEENS5_IS7_EEEENS5_IS9_EEE6secondB8ue170006Ev, symObjAddr: 0x81C4, symBinAddr: 0x100008914, symSize: 0x24 }
  - { offsetInCU: 0x18448, offset: 0x18448, size: 0x8, addend: 0x0, symName: __ZNKSt3__122__compressed_pair_elemINS_9allocatorINS_6vectorINS_12basic_stringIcNS_11char_traitsIcEENS1_IcEEEENS1_IS7_EEEEEELi1ELb1EE5__getB8ue170006Ev, symObjAddr: 0x81E8, symBinAddr: 0x100008938, symSize: 0x14 }
  - { offsetInCU: 0x1846E, offset: 0x1846E, size: 0x8, addend: 0x0, symName: __ZNKSt3__16vectorINS0_INS_12basic_stringIcNS_11char_traitsIcEENS_9allocatorIcEEEENS4_IS6_EEEENS4_IS8_EEE9__end_capB8ue170006Ev, symObjAddr: 0x81FC, symBinAddr: 0x10000894C, symSize: 0x28 }
  - { offsetInCU: 0x18494, offset: 0x18494, size: 0x8, addend: 0x0, symName: __ZNKSt3__117__compressed_pairIPNS_6vectorINS_12basic_stringIcNS_11char_traitsIcEENS_9allocatorIcEEEENS5_IS7_EEEENS5_IS9_EEE5firstB8ue170006Ev, symObjAddr: 0x8224, symBinAddr: 0x100008974, symSize: 0x24 }
  - { offsetInCU: 0x184BA, offset: 0x184BA, size: 0x8, addend: 0x0, symName: __ZNKSt3__122__compressed_pair_elemIPNS_6vectorINS_12basic_stringIcNS_11char_traitsIcEENS_9allocatorIcEEEENS5_IS7_EEEELi0ELb0EE5__getB8ue170006Ev, symObjAddr: 0x8248, symBinAddr: 0x100008998, symSize: 0x14 }
  - { offsetInCU: 0x184E0, offset: 0x184E0, size: 0x8, addend: 0x0, symName: __ZNSt3__114__split_bufferINS_6vectorINS_12basic_stringIcNS_11char_traitsIcEENS_9allocatorIcEEEENS5_IS7_EEEERNS5_IS9_EEEC2EmmSB_, symObjAddr: 0x825C, symBinAddr: 0x1000089AC, symSize: 0xE0 }
  - { offsetInCU: 0x18553, offset: 0x18553, size: 0x8, addend: 0x0, symName: __ZNSt3__117__compressed_pairIPNS_6vectorINS_12basic_stringIcNS_11char_traitsIcEENS_9allocatorIcEEEENS5_IS7_EEEERNS5_IS9_EEEC1B8ue170006IDnSC_EEOT_OT0_, symObjAddr: 0x833C, symBinAddr: 0x100008A8C, symSize: 0x3C }
  - { offsetInCU: 0x185AB, offset: 0x185AB, size: 0x8, addend: 0x0, symName: __ZNSt3__114__split_bufferINS_6vectorINS_12basic_stringIcNS_11char_traitsIcEENS_9allocatorIcEEEENS5_IS7_EEEERNS5_IS9_EEE7__allocB8ue170006Ev, symObjAddr: 0x83B8, symBinAddr: 0x100008B08, symSize: 0x28 }
  - { offsetInCU: 0x185D1, offset: 0x185D1, size: 0x8, addend: 0x0, symName: __ZNSt3__114__split_bufferINS_6vectorINS_12basic_stringIcNS_11char_traitsIcEENS_9allocatorIcEEEENS5_IS7_EEEERNS5_IS9_EEE9__end_capB8ue170006Ev, symObjAddr: 0x83E0, symBinAddr: 0x100008B30, symSize: 0x28 }
  - { offsetInCU: 0x185F7, offset: 0x185F7, size: 0x8, addend: 0x0, symName: __ZNSt3__117__compressed_pairIPNS_6vectorINS_12basic_stringIcNS_11char_traitsIcEENS_9allocatorIcEEEENS5_IS7_EEEERNS5_IS9_EEEC2B8ue170006IDnSC_EEOT_OT0_, symObjAddr: 0x8408, symBinAddr: 0x100008B58, symSize: 0x48 }
  - { offsetInCU: 0x1864F, offset: 0x1864F, size: 0x8, addend: 0x0, symName: __ZNSt3__122__compressed_pair_elemIRNS_9allocatorINS_6vectorINS_12basic_stringIcNS_11char_traitsIcEENS1_IcEEEENS1_IS7_EEEEEELi1ELb0EEC2B8ue170006ISB_vEEOT_, symObjAddr: 0x8450, symBinAddr: 0x100008BA0, symSize: 0x20 }
  - { offsetInCU: 0x18691, offset: 0x18691, size: 0x8, addend: 0x0, symName: __ZNSt3__19allocatorINS_6vectorINS_12basic_stringIcNS_11char_traitsIcEENS0_IcEEEENS0_IS6_EEEEE8allocateB8ue170006Em, symObjAddr: 0x8470, symBinAddr: 0x100008BC0, symSize: 0x5C }
  - { offsetInCU: 0x186C5, offset: 0x186C5, size: 0x8, addend: 0x0, symName: __ZNSt3__117__compressed_pairIPNS_6vectorINS_12basic_stringIcNS_11char_traitsIcEENS_9allocatorIcEEEENS5_IS7_EEEERNS5_IS9_EEE6secondB8ue170006Ev, symObjAddr: 0x84CC, symBinAddr: 0x100008C1C, symSize: 0x28 }
  - { offsetInCU: 0x186EB, offset: 0x186EB, size: 0x8, addend: 0x0, symName: __ZNSt3__122__compressed_pair_elemIRNS_9allocatorINS_6vectorINS_12basic_stringIcNS_11char_traitsIcEENS1_IcEEEENS1_IS7_EEEEEELi1ELb0EE5__getB8ue170006Ev, symObjAddr: 0x84F4, symBinAddr: 0x100008C44, symSize: 0x18 }
  - { offsetInCU: 0x18711, offset: 0x18711, size: 0x8, addend: 0x0, symName: __ZNSt3__117__compressed_pairIPNS_6vectorINS_12basic_stringIcNS_11char_traitsIcEENS_9allocatorIcEEEENS5_IS7_EEEERNS5_IS9_EEE5firstB8ue170006Ev, symObjAddr: 0x850C, symBinAddr: 0x100008C5C, symSize: 0x24 }
  - { offsetInCU: 0x18737, offset: 0x18737, size: 0x8, addend: 0x0, symName: __ZNKSt3__16vectorINS0_INS_12basic_stringIcNS_11char_traitsIcEENS_9allocatorIcEEEENS4_IS6_EEEENS4_IS8_EEE17__annotate_deleteB8ue170006Ev, symObjAddr: 0x8530, symBinAddr: 0x100008C80, symSize: 0xD4 }
  - { offsetInCU: 0x1875D, offset: 0x1875D, size: 0x8, addend: 0x0, symName: __ZNSt3__116reverse_iteratorIPNS_6vectorINS_12basic_stringIcNS_11char_traitsIcEENS_9allocatorIcEEEENS5_IS7_EEEEEC1B8ue170006ESA_, symObjAddr: 0x8730, symBinAddr: 0x100008E80, symSize: 0x34 }
  - { offsetInCU: 0x18795, offset: 0x18795, size: 0x8, addend: 0x0, symName: __ZNKSt3__116reverse_iteratorIPNS_6vectorINS_12basic_stringIcNS_11char_traitsIcEENS_9allocatorIcEEEENS5_IS7_EEEEE4baseB8ue170006Ev, symObjAddr: 0x8764, symBinAddr: 0x100008EB4, symSize: 0x18 }
  - { offsetInCU: 0x187BB, offset: 0x187BB, size: 0x8, addend: 0x0, symName: __ZNKSt3__16vectorINS0_INS_12basic_stringIcNS_11char_traitsIcEENS_9allocatorIcEEEENS4_IS6_EEEENS4_IS8_EEE14__annotate_newB8ue170006Em, symObjAddr: 0x87B8, symBinAddr: 0x100008F08, symSize: 0xC8 }
  - { offsetInCU: 0x187F0, offset: 0x187F0, size: 0x8, addend: 0x0, symName: __ZNKSt3__16vectorINS0_INS_12basic_stringIcNS_11char_traitsIcEENS_9allocatorIcEEEENS4_IS6_EEEENS4_IS8_EEE31__annotate_contiguous_containerB8ue170006EPKvSC_SC_SC_, symObjAddr: 0x8880, symBinAddr: 0x100008FD0, symSize: 0x20 }
  - { offsetInCU: 0x18842, offset: 0x18842, size: 0x8, addend: 0x0, symName: __ZNKSt3__16vectorINS0_INS_12basic_stringIcNS_11char_traitsIcEENS_9allocatorIcEEEENS4_IS6_EEEENS4_IS8_EEE4dataB8ue170006Ev, symObjAddr: 0x88A0, symBinAddr: 0x100008FF0, symSize: 0x28 }
  - { offsetInCU: 0x18868, offset: 0x18868, size: 0x8, addend: 0x0, symName: __ZNSt3__129_AllocatorDestroyRangeReverseINS_9allocatorINS_6vectorINS_12basic_stringIcNS_11char_traitsIcEENS1_IcEEEENS1_IS7_EEEEEENS_16reverse_iteratorIPS9_EEEC1B8ue170006ERSA_RSD_SG_, symObjAddr: 0x8914, symBinAddr: 0x100009064, symSize: 0x44 }
  - { offsetInCU: 0x188BF, offset: 0x188BF, size: 0x8, addend: 0x0, symName: __ZNSt3__116allocator_traitsINS_9allocatorINS_6vectorINS_12basic_stringIcNS_11char_traitsIcEENS1_IcEEEENS1_IS7_EEEEEEE9constructB8ue170006IS9_JS9_EvvEEvRSA_PT_DpOT0_, symObjAddr: 0x89A0, symBinAddr: 0x1000090F0, symSize: 0x30 }
  - { offsetInCU: 0x18913, offset: 0x18913, size: 0x8, addend: 0x0, symName: __ZNKSt3__116reverse_iteratorIPNS_6vectorINS_12basic_stringIcNS_11char_traitsIcEENS_9allocatorIcEEEENS5_IS7_EEEEEdeB8ue170006Ev, symObjAddr: 0x89F4, symBinAddr: 0x100009144, symSize: 0x28 }
  - { offsetInCU: 0x18947, offset: 0x18947, size: 0x8, addend: 0x0, symName: __ZNSt3__116reverse_iteratorIPNS_6vectorINS_12basic_stringIcNS_11char_traitsIcEENS_9allocatorIcEEEENS5_IS7_EEEEEppB8ue170006Ev, symObjAddr: 0x8A1C, symBinAddr: 0x10000916C, symSize: 0x20 }
  - { offsetInCU: 0x1896D, offset: 0x1896D, size: 0x8, addend: 0x0, symName: __ZNSt3__128__exception_guard_exceptionsINS_29_AllocatorDestroyRangeReverseINS_9allocatorINS_6vectorINS_12basic_stringIcNS_11char_traitsIcEENS2_IcEEEENS2_IS8_EEEEEENS_16reverse_iteratorIPSA_EEEEE10__completeB8ue170006Ev, symObjAddr: 0x8A3C, symBinAddr: 0x10000918C, symSize: 0x1C }
  - { offsetInCU: 0x18993, offset: 0x18993, size: 0x8, addend: 0x0, symName: __ZNSt3__128__exception_guard_exceptionsINS_29_AllocatorDestroyRangeReverseINS_9allocatorINS_6vectorINS_12basic_stringIcNS_11char_traitsIcEENS2_IcEEEENS2_IS8_EEEEEENS_16reverse_iteratorIPSA_EEEEED1B8ue170006Ev, symObjAddr: 0x8A58, symBinAddr: 0x1000091A8, symSize: 0x2C }
  - { offsetInCU: 0x189BD, offset: 0x189BD, size: 0x8, addend: 0x0, symName: __ZNSt3__128__exception_guard_exceptionsINS_29_AllocatorDestroyRangeReverseINS_9allocatorINS_6vectorINS_12basic_stringIcNS_11char_traitsIcEENS2_IcEEEENS2_IS8_EEEEEENS_16reverse_iteratorIPSA_EEEEEC1B8ue170006ESF_, symObjAddr: 0x8A84, symBinAddr: 0x1000091D4, symSize: 0x34 }
  - { offsetInCU: 0x189F6, offset: 0x189F6, size: 0x8, addend: 0x0, symName: __ZNSt3__128__exception_guard_exceptionsINS_29_AllocatorDestroyRangeReverseINS_9allocatorINS_6vectorINS_12basic_stringIcNS_11char_traitsIcEENS2_IcEEEENS2_IS8_EEEEEENS_16reverse_iteratorIPSA_EEEEEC2B8ue170006ESF_, symObjAddr: 0x8AB8, symBinAddr: 0x100009208, symSize: 0x30 }
  - { offsetInCU: 0x18A2F, offset: 0x18A2F, size: 0x8, addend: 0x0, symName: __ZNSt3__129_AllocatorDestroyRangeReverseINS_9allocatorINS_6vectorINS_12basic_stringIcNS_11char_traitsIcEENS1_IcEEEENS1_IS7_EEEEEENS_16reverse_iteratorIPS9_EEEC2B8ue170006ERSA_RSD_SG_, symObjAddr: 0x8AE8, symBinAddr: 0x100009238, symSize: 0x38 }
  - { offsetInCU: 0x18A86, offset: 0x18A86, size: 0x8, addend: 0x0, symName: __ZNSt3__16vectorINS_12basic_stringIcNS_11char_traitsIcEENS_9allocatorIcEEEENS4_IS6_EEEC1B8ue170006EOS8_, symObjAddr: 0x8B5C, symBinAddr: 0x1000092AC, symSize: 0x34 }
  - { offsetInCU: 0x18AC1, offset: 0x18AC1, size: 0x8, addend: 0x0, symName: __ZNSt3__16vectorINS_12basic_stringIcNS_11char_traitsIcEENS_9allocatorIcEEEENS4_IS6_EEEC2B8ue170006EOS8_, symObjAddr: 0x8B90, symBinAddr: 0x1000092E0, symSize: 0xC4 }
  - { offsetInCU: 0x18B02, offset: 0x18B02, size: 0x8, addend: 0x0, symName: __ZNSt3__119__to_address_helperINS_16reverse_iteratorIPNS_6vectorINS_12basic_stringIcNS_11char_traitsIcEENS_9allocatorIcEEEENS6_IS8_EEEEEEvE6__callB8ue170006ERKSC_, symObjAddr: 0x8C54, symBinAddr: 0x1000093A4, symSize: 0x38 }
  - { offsetInCU: 0x18B25, offset: 0x18B25, size: 0x8, addend: 0x0, symName: __ZNKSt3__116reverse_iteratorIPNS_6vectorINS_12basic_stringIcNS_11char_traitsIcEENS_9allocatorIcEEEENS5_IS7_EEEEEptB8ue170006Ev, symObjAddr: 0x8C8C, symBinAddr: 0x1000093DC, symSize: 0x2C }
  - { offsetInCU: 0x18B4B, offset: 0x18B4B, size: 0x8, addend: 0x0, symName: __ZNSt3__128__exception_guard_exceptionsINS_29_AllocatorDestroyRangeReverseINS_9allocatorINS_6vectorINS_12basic_stringIcNS_11char_traitsIcEENS2_IcEEEENS2_IS8_EEEEEENS_16reverse_iteratorIPSA_EEEEED2B8ue170006Ev, symObjAddr: 0x8D5C, symBinAddr: 0x1000094AC, symSize: 0x50 }
  - { offsetInCU: 0x18B75, offset: 0x18B75, size: 0x8, addend: 0x0, symName: __ZNKSt3__129_AllocatorDestroyRangeReverseINS_9allocatorINS_6vectorINS_12basic_stringIcNS_11char_traitsIcEENS1_IcEEEENS1_IS7_EEEEEENS_16reverse_iteratorIPS9_EEEclB8ue170006Ev, symObjAddr: 0x8DAC, symBinAddr: 0x1000094FC, symSize: 0xB4 }
  - { offsetInCU: 0x18B9C, offset: 0x18B9C, size: 0x8, addend: 0x0, symName: __ZNSt3__116reverse_iteratorINS0_IPNS_6vectorINS_12basic_stringIcNS_11char_traitsIcEENS_9allocatorIcEEEENS5_IS7_EEEEEEEC1B8ue170006ESB_, symObjAddr: 0x8ED0, symBinAddr: 0x100009620, symSize: 0x3C }
  - { offsetInCU: 0x18BD4, offset: 0x18BD4, size: 0x8, addend: 0x0, symName: __ZNSt3__116allocator_traitsINS_9allocatorINS_6vectorINS_12basic_stringIcNS_11char_traitsIcEENS1_IcEEEENS1_IS7_EEEEEEE7destroyB8ue170006IS9_vvEEvRSA_PT_, symObjAddr: 0x8F6C, symBinAddr: 0x1000096BC, symSize: 0x28 }
  - { offsetInCU: 0x18C0E, offset: 0x18C0E, size: 0x8, addend: 0x0, symName: __ZNSt3__116reverse_iteratorINS0_IPNS_6vectorINS_12basic_stringIcNS_11char_traitsIcEENS_9allocatorIcEEEENS5_IS7_EEEEEEEppB8ue170006Ev, symObjAddr: 0x8FB8, symBinAddr: 0x100009708, symSize: 0x30 }
  - { offsetInCU: 0x18C34, offset: 0x18C34, size: 0x8, addend: 0x0, symName: __ZNKSt3__116reverse_iteratorINS0_IPNS_6vectorINS_12basic_stringIcNS_11char_traitsIcEENS_9allocatorIcEEEENS5_IS7_EEEEEEE4baseB8ue170006Ev, symObjAddr: 0x8FE8, symBinAddr: 0x100009738, symSize: 0x24 }
  - { offsetInCU: 0x18C60, offset: 0x18C60, size: 0x8, addend: 0x0, symName: __ZNSt3__119__to_address_helperINS_16reverse_iteratorINS1_IPNS_6vectorINS_12basic_stringIcNS_11char_traitsIcEENS_9allocatorIcEEEENS6_IS8_EEEEEEEEvE6__callB8ue170006ERKSD_, symObjAddr: 0x9054, symBinAddr: 0x1000097A4, symSize: 0x38 }
  - { offsetInCU: 0x18C83, offset: 0x18C83, size: 0x8, addend: 0x0, symName: __ZNKSt3__116reverse_iteratorINS0_IPNS_6vectorINS_12basic_stringIcNS_11char_traitsIcEENS_9allocatorIcEEEENS5_IS7_EEEEEEEptB8ue170006Ev, symObjAddr: 0x908C, symBinAddr: 0x1000097DC, symSize: 0x4C }
  - { offsetInCU: 0x18CA9, offset: 0x18CA9, size: 0x8, addend: 0x0, symName: __ZNSt3__116reverse_iteratorIPNS_6vectorINS_12basic_stringIcNS_11char_traitsIcEENS_9allocatorIcEEEENS5_IS7_EEEEEpLB8ue170006El, symObjAddr: 0x9188, symBinAddr: 0x1000098D8, symSize: 0x30 }
  - { offsetInCU: 0x18CDD, offset: 0x18CDD, size: 0x8, addend: 0x0, symName: __ZNSt3__116reverse_iteratorIPNS_6vectorINS_12basic_stringIcNS_11char_traitsIcEENS_9allocatorIcEEEENS5_IS7_EEEEEmmB8ue170006Ev, symObjAddr: 0x91B8, symBinAddr: 0x100009908, symSize: 0x20 }
  - { offsetInCU: 0x18D03, offset: 0x18D03, size: 0x8, addend: 0x0, symName: __ZNSt3__116reverse_iteratorINS0_IPNS_6vectorINS_12basic_stringIcNS_11char_traitsIcEENS_9allocatorIcEEEENS5_IS7_EEEEEEEC2B8ue170006ESB_, symObjAddr: 0x91D8, symBinAddr: 0x100009928, symSize: 0x2C }
  - { offsetInCU: 0x18D3B, offset: 0x18D3B, size: 0x8, addend: 0x0, symName: __ZNSt3__116reverse_iteratorIPNS_6vectorINS_12basic_stringIcNS_11char_traitsIcEENS_9allocatorIcEEEENS5_IS7_EEEEEC2B8ue170006ESA_, symObjAddr: 0x9204, symBinAddr: 0x100009954, symSize: 0x28 }
  - { offsetInCU: 0x18D73, offset: 0x18D73, size: 0x8, addend: 0x0, symName: __ZNSt3__114__split_bufferINS_6vectorINS_12basic_stringIcNS_11char_traitsIcEENS_9allocatorIcEEEENS5_IS7_EEEERNS5_IS9_EEED2Ev, symObjAddr: 0x922C, symBinAddr: 0x10000997C, symSize: 0x8C }
  - { offsetInCU: 0x18D9F, offset: 0x18D9F, size: 0x8, addend: 0x0, symName: __ZNSt3__114__split_bufferINS_6vectorINS_12basic_stringIcNS_11char_traitsIcEENS_9allocatorIcEEEENS5_IS7_EEEERNS5_IS9_EEE5clearB8ue170006Ev, symObjAddr: 0x92B8, symBinAddr: 0x100009A08, symSize: 0x28 }
  - { offsetInCU: 0x18DC5, offset: 0x18DC5, size: 0x8, addend: 0x0, symName: __ZNSt3__116allocator_traitsINS_9allocatorINS_6vectorINS_12basic_stringIcNS_11char_traitsIcEENS1_IcEEEENS1_IS7_EEEEEEE10deallocateB8ue170006ERSA_PS9_m, symObjAddr: 0x92E0, symBinAddr: 0x100009A30, symSize: 0x34 }
  - { offsetInCU: 0x18E07, offset: 0x18E07, size: 0x8, addend: 0x0, symName: __ZNKSt3__114__split_bufferINS_6vectorINS_12basic_stringIcNS_11char_traitsIcEENS_9allocatorIcEEEENS5_IS7_EEEERNS5_IS9_EEE8capacityB8ue170006Ev, symObjAddr: 0x9314, symBinAddr: 0x100009A64, symSize: 0x40 }
  - { offsetInCU: 0x18E2D, offset: 0x18E2D, size: 0x8, addend: 0x0, symName: __ZNSt3__114__split_bufferINS_6vectorINS_12basic_stringIcNS_11char_traitsIcEENS_9allocatorIcEEEENS5_IS7_EEEERNS5_IS9_EEE17__destruct_at_endB8ue170006EPS9_, symObjAddr: 0x9354, symBinAddr: 0x100009AA4, symSize: 0x2C }
  - { offsetInCU: 0x18E61, offset: 0x18E61, size: 0x8, addend: 0x0, symName: __ZNSt3__114__split_bufferINS_6vectorINS_12basic_stringIcNS_11char_traitsIcEENS_9allocatorIcEEEENS5_IS7_EEEERNS5_IS9_EEE17__destruct_at_endB8ue170006EPS9_NS_17integral_constantIbLb0EEE, symObjAddr: 0x9380, symBinAddr: 0x100009AD0, symSize: 0x80 }
  - { offsetInCU: 0x18EA1, offset: 0x18EA1, size: 0x8, addend: 0x0, symName: __ZNSt3__19allocatorINS_6vectorINS_12basic_stringIcNS_11char_traitsIcEENS0_IcEEEENS0_IS6_EEEEE10deallocateB8ue170006EPS8_m, symObjAddr: 0x9400, symBinAddr: 0x100009B50, symSize: 0x44 }
  - { offsetInCU: 0x18EE3, offset: 0x18EE3, size: 0x8, addend: 0x0, symName: __ZNKSt3__114__split_bufferINS_6vectorINS_12basic_stringIcNS_11char_traitsIcEENS_9allocatorIcEEEENS5_IS7_EEEERNS5_IS9_EEE9__end_capB8ue170006Ev, symObjAddr: 0x9444, symBinAddr: 0x100009B94, symSize: 0x28 }
  - { offsetInCU: 0x18F09, offset: 0x18F09, size: 0x8, addend: 0x0, symName: __ZNKSt3__117__compressed_pairIPNS_6vectorINS_12basic_stringIcNS_11char_traitsIcEENS_9allocatorIcEEEENS5_IS7_EEEERNS5_IS9_EEE5firstB8ue170006Ev, symObjAddr: 0x946C, symBinAddr: 0x100009BBC, symSize: 0x24 }
  - { offsetInCU: 0x18F2F, offset: 0x18F2F, size: 0x8, addend: 0x0, symName: __ZNSt3__115__hash_iteratorIPNS_11__hash_nodeINS_17__hash_value_typeINS_12basic_stringIcNS_11char_traitsIcEENS_9allocatorIcEEEENS_6vectorIS8_NS6_IS8_EEEEEEPvEEEppB8ue170006Ev, symObjAddr: 0x9490, symBinAddr: 0x100009BE0, symSize: 0x20 }
  - { offsetInCU: 0x18F55, offset: 0x18F55, size: 0x8, addend: 0x0, symName: __ZNSt3__113unordered_mapINS_12basic_stringIcNS_11char_traitsIcEENS_9allocatorIcEEEENS_6vectorIS6_NS4_IS6_EEEENS_4hashIS6_EENS_8equal_toIS6_EENS4_INS_4pairIKS6_S9_EEEEED2B8ue170006Ev, symObjAddr: 0x94B0, symBinAddr: 0x100009C00, symSize: 0x2C }
  - { offsetInCU: 0x18F7F, offset: 0x18F7F, size: 0x8, addend: 0x0, symName: __ZNSt3__112__hash_tableINS_17__hash_value_typeINS_12basic_stringIcNS_11char_traitsIcEENS_9allocatorIcEEEENS_6vectorIS7_NS5_IS7_EEEEEENS_22__unordered_map_hasherIS7_SB_NS_4hashIS7_EENS_8equal_toIS7_EELb1EEENS_21__unordered_map_equalIS7_SB_SG_SE_Lb1EEENS5_ISB_EEED1Ev, symObjAddr: 0x94DC, symBinAddr: 0x100009C2C, symSize: 0x2C }
  - { offsetInCU: 0x18FAB, offset: 0x18FAB, size: 0x8, addend: 0x0, symName: __ZNSt3__112__hash_tableINS_17__hash_value_typeINS_12basic_stringIcNS_11char_traitsIcEENS_9allocatorIcEEEENS_6vectorIS7_NS5_IS7_EEEEEENS_22__unordered_map_hasherIS7_SB_NS_4hashIS7_EENS_8equal_toIS7_EELb1EEENS_21__unordered_map_equalIS7_SB_SG_SE_Lb1EEENS5_ISB_EEED2Ev, symObjAddr: 0x9508, symBinAddr: 0x100009C58, symSize: 0x48 }
  - { offsetInCU: 0x18FD7, offset: 0x18FD7, size: 0x8, addend: 0x0, symName: __ZNSt3__112__hash_tableINS_17__hash_value_typeINS_12basic_stringIcNS_11char_traitsIcEENS_9allocatorIcEEEENS_6vectorIS7_NS5_IS7_EEEEEENS_22__unordered_map_hasherIS7_SB_NS_4hashIS7_EENS_8equal_toIS7_EELb1EEENS_21__unordered_map_equalIS7_SB_SG_SE_Lb1EEENS5_ISB_EEE17__deallocate_nodeEPNS_16__hash_node_baseIPNS_11__hash_nodeISB_PvEEEE, symObjAddr: 0x9550, symBinAddr: 0x100009CA0, symSize: 0xA8 }
  - { offsetInCU: 0x19041, offset: 0x19041, size: 0x8, addend: 0x0, symName: __ZNSt3__110unique_ptrIA_PNS_16__hash_node_baseIPNS_11__hash_nodeINS_17__hash_value_typeINS_12basic_stringIcNS_11char_traitsIcEENS_9allocatorIcEEEENS_6vectorIS9_NS7_IS9_EEEEEEPvEEEENS_25__bucket_list_deallocatorINS7_ISI_EEEEED1B8ue170006Ev, symObjAddr: 0x95F8, symBinAddr: 0x100009D48, symSize: 0x2C }
  - { offsetInCU: 0x1906B, offset: 0x1906B, size: 0x8, addend: 0x0, symName: __ZNSt3__110unique_ptrIA_PNS_16__hash_node_baseIPNS_11__hash_nodeINS_17__hash_value_typeINS_12basic_stringIcNS_11char_traitsIcEENS_9allocatorIcEEEENS_6vectorIS9_NS7_IS9_EEEEEEPvEEEENS_25__bucket_list_deallocatorINS7_ISI_EEEEED2B8ue170006Ev, symObjAddr: 0x9624, symBinAddr: 0x100009D74, symSize: 0x30 }
  - { offsetInCU: 0x19095, offset: 0x19095, size: 0x8, addend: 0x0, symName: __ZNSt3__110unique_ptrIA_PNS_16__hash_node_baseIPNS_11__hash_nodeINS_17__hash_value_typeINS_12basic_stringIcNS_11char_traitsIcEENS_9allocatorIcEEEENS_6vectorIS9_NS7_IS9_EEEEEEPvEEEENS_25__bucket_list_deallocatorINS7_ISI_EEEEE5resetB8ue170006EDn, symObjAddr: 0x9654, symBinAddr: 0x100009DA4, symSize: 0x6C }
  - { offsetInCU: 0x190D5, offset: 0x190D5, size: 0x8, addend: 0x0, symName: __ZNSt3__16vectorINS0_INS_12basic_stringIcNS_11char_traitsIcEENS_9allocatorIcEEEENS4_IS6_EEEENS4_IS8_EEE11__make_iterB8ue170006EPS8_, symObjAddr: 0x96C0, symBinAddr: 0x100009E10, symSize: 0x30 }
  - { offsetInCU: 0x1910A, offset: 0x1910A, size: 0x8, addend: 0x0, symName: __ZNSt3__111__wrap_iterIPNS_6vectorINS_12basic_stringIcNS_11char_traitsIcEENS_9allocatorIcEEEENS5_IS7_EEEEEC1B8ue170006ESA_, symObjAddr: 0x96F0, symBinAddr: 0x100009E40, symSize: 0x34 }
  - { offsetInCU: 0x19142, offset: 0x19142, size: 0x8, addend: 0x0, symName: __ZNSt3__111__wrap_iterIPNS_6vectorINS_12basic_stringIcNS_11char_traitsIcEENS_9allocatorIcEEEENS5_IS7_EEEEEC2B8ue170006ESA_, symObjAddr: 0x9724, symBinAddr: 0x100009E74, symSize: 0x20 }
  - { offsetInCU: 0x1917A, offset: 0x1917A, size: 0x8, addend: 0x0, symName: __ZNKSt3__111__wrap_iterIPNS_6vectorINS_12basic_stringIcNS_11char_traitsIcEENS_9allocatorIcEEEENS5_IS7_EEEEE4baseB8ue170006Ev, symObjAddr: 0x978C, symBinAddr: 0x100009EDC, symSize: 0x18 }
  - { offsetInCU: 0x191A0, offset: 0x191A0, size: 0x8, addend: 0x0, symName: __ZNKSt3__16vectorINS_12basic_stringIcNS_11char_traitsIcEENS_9allocatorIcEEEENS4_IS6_EEE11__make_iterB8ue170006EPKS6_, symObjAddr: 0x97A4, symBinAddr: 0x100009EF4, symSize: 0x30 }
  - { offsetInCU: 0x191D5, offset: 0x191D5, size: 0x8, addend: 0x0, symName: __ZNSt3__111__wrap_iterIPKNS_12basic_stringIcNS_11char_traitsIcEENS_9allocatorIcEEEEEC1B8ue170006ES8_, symObjAddr: 0x97D4, symBinAddr: 0x100009F24, symSize: 0x34 }
  - { offsetInCU: 0x1920D, offset: 0x1920D, size: 0x8, addend: 0x0, symName: __ZNSt3__111__wrap_iterIPKNS_12basic_stringIcNS_11char_traitsIcEENS_9allocatorIcEEEEEC2B8ue170006ES8_, symObjAddr: 0x9808, symBinAddr: 0x100009F58, symSize: 0x20 }
  - { offsetInCU: 0x19245, offset: 0x19245, size: 0x8, addend: 0x0, symName: __ZNKSt3__111__wrap_iterIPKNS_12basic_stringIcNS_11char_traitsIcEENS_9allocatorIcEEEEE4baseB8ue170006Ev, symObjAddr: 0x9870, symBinAddr: 0x100009FC0, symSize: 0x18 }
  - { offsetInCU: 0x1926B, offset: 0x1926B, size: 0x8, addend: 0x0, symName: __ZNSt3__16vectorINS0_INS_12basic_stringIcNS_11char_traitsIcEENS_9allocatorIcEEEENS4_IS6_EEEENS4_IS8_EEED2B8ue170006Ev, symObjAddr: 0x9888, symBinAddr: 0x100009FD8, symSize: 0x44 }
  - { offsetInCU: 0x19295, offset: 0x19295, size: 0x8, addend: 0x0, symName: __ZNSt3__16vectorINS0_INS_12basic_stringIcNS_11char_traitsIcEENS_9allocatorIcEEEENS4_IS6_EEEENS4_IS8_EEE16__destroy_vectorC1B8ue170006ERSA_, symObjAddr: 0x98CC, symBinAddr: 0x10000A01C, symSize: 0x34 }
  - { offsetInCU: 0x192CE, offset: 0x192CE, size: 0x8, addend: 0x0, symName: __ZNSt3__16vectorINS0_INS_12basic_stringIcNS_11char_traitsIcEENS_9allocatorIcEEEENS4_IS6_EEEENS4_IS8_EEE16__destroy_vectorclB8ue170006Ev, symObjAddr: 0x9900, symBinAddr: 0x10000A050, symSize: 0x90 }
  - { offsetInCU: 0x192F4, offset: 0x192F4, size: 0x8, addend: 0x0, symName: __ZNSt3__16vectorINS0_INS_12basic_stringIcNS_11char_traitsIcEENS_9allocatorIcEEEENS4_IS6_EEEENS4_IS8_EEE16__destroy_vectorC2B8ue170006ERSA_, symObjAddr: 0x9990, symBinAddr: 0x10000A0E0, symSize: 0x20 }
  - { offsetInCU: 0x1932D, offset: 0x1932D, size: 0x8, addend: 0x0, symName: __ZNSt3__16vectorINS0_INS_12basic_stringIcNS_11char_traitsIcEENS_9allocatorIcEEEENS4_IS6_EEEENS4_IS8_EEE7__clearB8ue170006Ev, symObjAddr: 0x99B0, symBinAddr: 0x10000A100, symSize: 0x28 }
  - { offsetInCU: 0x19353, offset: 0x19353, size: 0x8, addend: 0x0, symName: __ZNSt3__16vectorINS0_INS_12basic_stringIcNS_11char_traitsIcEENS_9allocatorIcEEEENS4_IS6_EEEENS4_IS8_EEE22__base_destruct_at_endB8ue170006EPS8_, symObjAddr: 0x99D8, symBinAddr: 0x10000A128, symSize: 0x8C }
  - { offsetInCU: 0x19397, offset: 0x19397, size: 0x8, addend: 0x0, symName: __ZNSt3__112basic_stringIcNS_11char_traitsIcEENS_9allocatorIcEEEC2B8ue170006ILi0EEEPKc, symObjAddr: 0x9A64, symBinAddr: 0x10000A1B4, symSize: 0x58 }
  - { offsetInCU: 0x193D6, offset: 0x193D6, size: 0x8, addend: 0x0, symName: __ZNSt3__117__compressed_pairINS_12basic_stringIcNS_11char_traitsIcEENS_9allocatorIcEEE5__repES5_EC1B8ue170006INS_18__default_init_tagESA_EEOT_OT0_, symObjAddr: 0x9ABC, symBinAddr: 0x10000A20C, symSize: 0x3C }
  - { offsetInCU: 0x1942E, offset: 0x1942E, size: 0x8, addend: 0x0, symName: __ZNSt3__111char_traitsIcE6lengthB8ue170006EPKc, symObjAddr: 0x9AF8, symBinAddr: 0x10000A248, symSize: 0x34 }
  - { offsetInCU: 0x19451, offset: 0x19451, size: 0x8, addend: 0x0, symName: __ZNSt3__117__compressed_pairINS_12basic_stringIcNS_11char_traitsIcEENS_9allocatorIcEEE5__repES5_EC2B8ue170006INS_18__default_init_tagESA_EEOT_OT0_, symObjAddr: 0x9B2C, symBinAddr: 0x10000A27C, symSize: 0x3C }
  - { offsetInCU: 0x194A9, offset: 0x194A9, size: 0x8, addend: 0x0, symName: __ZNSt3__122__compressed_pair_elemINS_12basic_stringIcNS_11char_traitsIcEENS_9allocatorIcEEE5__repELi0ELb0EEC2B8ue170006ENS_18__default_init_tagE, symObjAddr: 0x9B68, symBinAddr: 0x10000A2B8, symSize: 0x14 }
  - { offsetInCU: 0x194DD, offset: 0x194DD, size: 0x8, addend: 0x0, symName: __ZNSt3__122__compressed_pair_elemINS_9allocatorIcEELi1ELb1EEC2B8ue170006ENS_18__default_init_tagE, symObjAddr: 0x9B7C, symBinAddr: 0x10000A2CC, symSize: 0x2C }
  - { offsetInCU: 0x19511, offset: 0x19511, size: 0x8, addend: 0x0, symName: __ZNSt3__19allocatorIcEC2B8ue170006Ev, symObjAddr: 0x9BA8, symBinAddr: 0x10000A2F8, symSize: 0x2C }
  - { offsetInCU: 0x1953B, offset: 0x1953B, size: 0x8, addend: 0x0, symName: __ZNSt3__116__non_trivial_ifILb1ENS_9allocatorIcEEEC2B8ue170006Ev, symObjAddr: 0x9BD4, symBinAddr: 0x10000A324, symSize: 0x14 }
  - { offsetInCU: 0x19565, offset: 0x19565, size: 0x8, addend: 0x0, symName: __ZNSt3__16vectorINS_12basic_stringIcNS_11char_traitsIcEENS_9allocatorIcEEEENS4_IS6_EEEC2B8ue170006ESt16initializer_listIS6_E, symObjAddr: 0x9C0C, symBinAddr: 0x10000A35C, symSize: 0x120 }
  - { offsetInCU: 0x195B5, offset: 0x195B5, size: 0x8, addend: 0x0, symName: __ZNKSt16initializer_listINSt3__112basic_stringIcNS0_11char_traitsIcEENS0_9allocatorIcEEEEE4sizeB8ue170006Ev, symObjAddr: 0x9D2C, symBinAddr: 0x10000A47C, symSize: 0x18 }
  - { offsetInCU: 0x195DB, offset: 0x195DB, size: 0x8, addend: 0x0, symName: __ZNSt3__16vectorINS_12basic_stringIcNS_11char_traitsIcEENS_9allocatorIcEEEENS4_IS6_EEE18__construct_at_endIPKS6_SB_EEvT_T0_m, symObjAddr: 0x9D44, symBinAddr: 0x10000A494, symSize: 0x8C }
  - { offsetInCU: 0x19651, offset: 0x19651, size: 0x8, addend: 0x0, symName: __ZNKSt16initializer_listINSt3__112basic_stringIcNS0_11char_traitsIcEENS0_9allocatorIcEEEEE5beginB8ue170006Ev, symObjAddr: 0x9DD0, symBinAddr: 0x10000A520, symSize: 0x18 }
  - { offsetInCU: 0x19677, offset: 0x19677, size: 0x8, addend: 0x0, symName: __ZNKSt16initializer_listINSt3__112basic_stringIcNS0_11char_traitsIcEENS0_9allocatorIcEEEEE3endB8ue170006Ev, symObjAddr: 0x9DE8, symBinAddr: 0x10000A538, symSize: 0x28 }
  - { offsetInCU: 0x196B9, offset: 0x196B9, size: 0x8, addend: 0x0, symName: __ZNSt3__119__unwrap_range_implIPKNS_12basic_stringIcNS_11char_traitsIcEENS_9allocatorIcEEEES8_E8__unwrapB8ue170006ES8_S8_, symObjAddr: 0x9FC0, symBinAddr: 0x10000A710, symSize: 0x58 }
  - { offsetInCU: 0x196F0, offset: 0x196F0, size: 0x8, addend: 0x0, symName: __ZNSt3__14pairIPKNS_12basic_stringIcNS_11char_traitsIcEENS_9allocatorIcEEEES8_EC1B8ue170006IS8_S8_LPv0EEEOT_OT0_, symObjAddr: 0xA03C, symBinAddr: 0x10000A78C, symSize: 0x3C }
  - { offsetInCU: 0x1974E, offset: 0x1974E, size: 0x8, addend: 0x0, symName: __ZNSt3__118__unwrap_iter_implIPKNS_12basic_stringIcNS_11char_traitsIcEENS_9allocatorIcEEEELb1EE8__unwrapB8ue170006ES8_, symObjAddr: 0xA078, symBinAddr: 0x10000A7C8, symSize: 0x24 }
  - { offsetInCU: 0x19771, offset: 0x19771, size: 0x8, addend: 0x0, symName: __ZNSt3__14pairIPKNS_12basic_stringIcNS_11char_traitsIcEENS_9allocatorIcEEEES8_EC2B8ue170006IS8_S8_LPv0EEEOT_OT0_, symObjAddr: 0xA0B0, symBinAddr: 0x10000A800, symSize: 0x34 }
  - { offsetInCU: 0x197CF, offset: 0x197CF, size: 0x8, addend: 0x0, symName: __ZNSt3__16vectorINS_12basic_stringIcNS_11char_traitsIcEENS_9allocatorIcEEEENS4_IS6_EEED2B8ue170006Ev, symObjAddr: 0xA0E4, symBinAddr: 0x10000A834, symSize: 0x40 }
  - { offsetInCU: 0x1981A, offset: 0x1981A, size: 0x8, addend: 0x0, symName: __ZNKSt3__113basic_ostreamIcNS_11char_traitsIcEEE6sentrycvbB8ue170006Ev, symObjAddr: 0xA310, symBinAddr: 0x10000AA60, symSize: 0x1C }
  - { offsetInCU: 0x19840, offset: 0x19840, size: 0x8, addend: 0x0, symName: __ZNSt3__119ostreambuf_iteratorIcNS_11char_traitsIcEEEC1B8ue170006ERNS_13basic_ostreamIcS2_EE, symObjAddr: 0xA56C, symBinAddr: 0x10000ACBC, symSize: 0x34 }
  - { offsetInCU: 0x19878, offset: 0x19878, size: 0x8, addend: 0x0, symName: __ZNKSt3__18ios_base5flagsB8ue170006Ev, symObjAddr: 0xA5A0, symBinAddr: 0x10000ACF0, symSize: 0x18 }
  - { offsetInCU: 0x198A0, offset: 0x198A0, size: 0x8, addend: 0x0, symName: __ZNKSt3__19basic_iosIcNS_11char_traitsIcEEE4fillB8ue170006Ev, symObjAddr: 0xA5B8, symBinAddr: 0x10000AD08, symSize: 0x64 }
  - { offsetInCU: 0x198C8, offset: 0x198C8, size: 0x8, addend: 0x0, symName: __ZNKSt3__119ostreambuf_iteratorIcNS_11char_traitsIcEEE6failedB8ue170006Ev, symObjAddr: 0xA61C, symBinAddr: 0x10000AD6C, symSize: 0x24 }
  - { offsetInCU: 0x198EE, offset: 0x198EE, size: 0x8, addend: 0x0, symName: __ZNSt3__19basic_iosIcNS_11char_traitsIcEEE8setstateB8ue170006Ej, symObjAddr: 0xA640, symBinAddr: 0x10000AD90, symSize: 0x2C }
  - { offsetInCU: 0x19923, offset: 0x19923, size: 0x8, addend: 0x0, symName: __ZNKSt3__18ios_base5widthB8ue170006Ev, symObjAddr: 0xA66C, symBinAddr: 0x10000ADBC, symSize: 0x18 }
  - { offsetInCU: 0x1994B, offset: 0x1994B, size: 0x8, addend: 0x0, symName: __ZNSt3__115basic_streambufIcNS_11char_traitsIcEEE5sputnB8ue170006EPKcl, symObjAddr: 0xA684, symBinAddr: 0x10000ADD4, symSize: 0x3C }
  - { offsetInCU: 0x1998D, offset: 0x1998D, size: 0x8, addend: 0x0, symName: __ZNSt3__112basic_stringIcNS_11char_traitsIcEENS_9allocatorIcEEEC1B8ue170006Emc, symObjAddr: 0xA6C0, symBinAddr: 0x10000AE10, symSize: 0x3C }
  - { offsetInCU: 0x199D5, offset: 0x199D5, size: 0x8, addend: 0x0, symName: __ZNSt3__112basic_stringIcNS_11char_traitsIcEENS_9allocatorIcEEE4dataB8ue170006Ev, symObjAddr: 0xA6FC, symBinAddr: 0x10000AE4C, symSize: 0x28 }
  - { offsetInCU: 0x199FB, offset: 0x199FB, size: 0x8, addend: 0x0, symName: __ZNSt3__18ios_base5widthB8ue170006El, symObjAddr: 0xA724, symBinAddr: 0x10000AE74, symSize: 0x2C }
  - { offsetInCU: 0x19A41, offset: 0x19A41, size: 0x8, addend: 0x0, symName: __ZNSt3__112basic_stringIcNS_11char_traitsIcEENS_9allocatorIcEEEC2B8ue170006Emc, symObjAddr: 0xA750, symBinAddr: 0x10000AEA0, symSize: 0x4C }
  - { offsetInCU: 0x19A89, offset: 0x19A89, size: 0x8, addend: 0x0, symName: __ZNSt3__119ostreambuf_iteratorIcNS_11char_traitsIcEEEC2B8ue170006ERNS_13basic_ostreamIcS2_EE, symObjAddr: 0xA79C, symBinAddr: 0x10000AEEC, symSize: 0x54 }
  - { offsetInCU: 0x19AC1, offset: 0x19AC1, size: 0x8, addend: 0x0, symName: __ZNKSt3__19basic_iosIcNS_11char_traitsIcEEE5rdbufB8ue170006Ev, symObjAddr: 0xA7F0, symBinAddr: 0x10000AF40, symSize: 0x24 }
  - { offsetInCU: 0x19AE9, offset: 0x19AE9, size: 0x8, addend: 0x0, symName: __ZNKSt3__18ios_base5rdbufB8ue170006Ev, symObjAddr: 0xA814, symBinAddr: 0x10000AF64, symSize: 0x18 }
  - { offsetInCU: 0x19B0F, offset: 0x19B0F, size: 0x8, addend: 0x0, symName: __ZNSt3__111char_traitsIcE11eq_int_typeB8ue170006Eii, symObjAddr: 0xA82C, symBinAddr: 0x10000AF7C, symSize: 0x28 }
  - { offsetInCU: 0x19B42, offset: 0x19B42, size: 0x8, addend: 0x0, symName: __ZNSt3__111char_traitsIcE3eofB8ue170006Ev, symObjAddr: 0xA854, symBinAddr: 0x10000AFA4, symSize: 0x8 }
  - { offsetInCU: 0x19B56, offset: 0x19B56, size: 0x8, addend: 0x0, symName: __ZNKSt3__19basic_iosIcNS_11char_traitsIcEEE5widenB8ue170006Ec, symObjAddr: 0xA85C, symBinAddr: 0x10000AFAC, symSize: 0x84 }
  - { offsetInCU: 0x19BC4, offset: 0x19BC4, size: 0x8, addend: 0x0, symName: __ZNKSt3__15ctypeIcE5widenB8ue170006Ec, symObjAddr: 0xA90C, symBinAddr: 0x10000B05C, symSize: 0x38 }
  - { offsetInCU: 0x19BF9, offset: 0x19BF9, size: 0x8, addend: 0x0, symName: __ZNSt3__18ios_base8setstateB8ue170006Ej, symObjAddr: 0xA944, symBinAddr: 0x10000B094, symSize: 0x34 }
...
